ccollections
defaultdict
p1
(c__builtin__
list
p2
tRp3
S'GTAC'
p4
(lp5
I183
aI195
aI499
aI606
aI1020
aI1455
aI1627
aI1804
aI1883
aI2619
aI2758
aI2938
aI3329
aI3942
aI4135
aI4263
aI4324
aI4379
aI4838
aI4867
aI5241
aI5300
aI5496
aI5800
aI5934
aI6178
aI6199
aI6769
aI7118
aI7250
aI7505
aI7718
aI7865
aI7882
aI8090
aI8130
aI8368
aI8521
aI8643
aI8809
aI8851
aI8953
aI9155
aI9183
aI9387
aI9904
asS'CGAG'
p6
(lp7
I40
aI128
aI557
aI633
aI657
aI811
aI830
aI923
aI1120
aI1470
aI1619
aI1630
aI1655
aI2270
aI2491
aI2699
aI2705
aI2933
aI2962
aI3073
aI3260
aI3375
aI3427
aI3737
aI4214
aI4634
aI4781
aI4999
aI5176
aI5539
aI5664
aI5794
aI5811
aI5855
aI6066
aI6185
aI6831
aI7261
aI7405
aI8078
aI8097
aI8236
aI8347
aI8372
aI8470
aI8887
aI8964
aI9010
aI9348
aI9587
aI9915
asS'GTAA'
p8
(lp9
I36
aI687
aI875
aI978
aI1036
aI1147
aI1187
aI1388
aI1698
aI1705
aI1900
aI2097
aI2273
aI2808
aI3265
aI3347
aI3423
aI4065
aI4257
aI4462
aI5125
aI6606
aI7444
aI7635
aI7914
aI8069
aI8306
aI9462
asS'CGAA'
p10
(lp11
I71
aI271
aI302
aI364
aI428
aI892
aI1194
aI1217
aI1940
aI2017
aI2332
aI2842
aI2906
aI3216
aI3401
aI3626
aI4580
aI5062
aI5251
aI5956
aI6015
aI6091
aI6109
aI6193
aI6257
aI6450
aI6536
aI6956
aI7055
aI7081
aI7085
aI7454
aI7518
aI7661
aI7827
aI8279
aI8381
aI8449
aI8618
aI9021
aI9056
aI9518
aI9674
aI9785
aI9856
asS'GTAG'
p12
(lp13
I92
aI470
aI549
aI660
aI684
aI731
aI939
aI1062
aI1226
aI1714
aI2193
aI3003
aI3040
aI3204
aI3366
aI3544
aI3599
aI4016
aI4084
aI4372
aI4467
aI4575
aI4766
aI4831
aI5638
aI5667
aI5773
aI5784
aI5989
aI5996
aI6645
aI6762
aI7438
aI7538
aI7687
aI7784
aI7858
aI7997
aI8103
aI8172
aI8219
aI8325
aI8631
aI9238
aI9251
aI9409
aI9423
aI9652
aI9725
aI9831
aI9956
aI9987
asS'CGAC'
p14
(lp15
I380
aI531
aI568
aI654
aI805
aI929
aI1088
aI1099
aI1308
aI2157
aI2235
aI2297
aI2802
aI3168
aI3908
aI3913
aI4094
aI4722
aI4862
aI5674
aI6277
aI6649
aI7397
aI8778
aI8812
aI8834
aI9342
asS'GTAT'
p16
(lp17
I132
aI250
aI719
aI1048
aI1285
aI1682
aI2230
aI3437
aI3983
aI4156
aI4164
aI4416
aI4569
aI4640
aI4747
aI5019
aI5384
aI5776
aI5826
aI5844
aI6007
aI6491
aI7141
aI7276
aI7294
aI8056
aI8162
aI8473
aI8541
aI8933
aI8979
aI8997
aI9082
aI9108
aI9169
aI9272
aI9709
aI9774
aI9781
aI9930
aI9948
asS'AGTG'
p18
(lp19
I611
aI650
aI967
aI1066
aI1197
aI1350
aI2067
aI2215
aI2493
aI2701
aI2770
aI3091
aI3145
aI3262
aI3294
aI4044
aI4362
aI4589
aI4647
aI4821
aI5142
aI5196
aI5413
aI6035
aI6196
aI6207
aI6408
aI6552
aI6752
aI6833
aI7072
aI7223
aI7557
aI7848
aI8174
aI8648
aI8745
aI9173
aI9437
aI9594
aI9706
asS'AGTA'
p20
(lp21
I91
aI498
aI659
aI686
aI718
aI938
aI977
aI1225
aI1704
aI1882
aI2272
aI2937
aI3039
aI3543
aI4134
aI4256
aI4262
aI4323
aI4378
aI4461
aI4837
aI5124
aI5299
aI5495
aI5666
aI5775
aI5799
aI5843
aI5995
aI6768
aI7293
aI7634
aI7783
aI7864
aI7913
aI8055
aI8089
aI8161
aI8324
aI8472
aI8540
aI8932
aI8996
aI9081
aI9154
aI9422
aI9830
aI9947
aI9955
asS'AGTC'
p22
(lp23
I9
aI431
aI1228
aI1472
aI1538
aI1632
aI1721
aI1810
aI1972
aI2168
aI2262
aI2335
aI2664
aI2796
aI3005
aI3042
aI3277
aI3637
aI3778
aI3856
aI4030
aI4086
aI4283
aI4374
aI4658
aI4705
aI4833
aI5128
aI5341
aI5460
aI5640
aI5837
aI5881
aI6118
aI6394
aI6689
aI6764
aI6932
aI7097
aI7287
aI7696
aI7745
aI7860
aI7999
aI8327
aI8990
aI9686
aI9941
asS'TTAT'
p24
(lp25
I753
aI984
aI1497
aI1558
aI1564
aI1585
aI2310
aI2505
aI2846
aI3086
aI3554
aI3617
aI3701
aI3893
aI4250
aI4302
aI4449
aI4521
aI4541
aI4667
aI5563
aI5578
aI5632
aI5701
aI5896
aI6332
aI6426
aI6485
aI7243
aI8063
aI8673
aI8876
asS'CGAT'
p26
(lp27
I16
aI416
aI576
aI705
aI932
aI1134
aI1294
aI2124
aI2141
aI2161
aI2300
aI2531
aI2538
aI2942
aI3171
aI3487
aI3593
aI3621
aI3653
aI3664
aI3754
aI3951
aI4759
aI5220
aI5225
aI5545
aI5615
aI5724
aI5969
aI7145
aI7161
aI7928
aI8115
aI8497
aI8805
aI8909
aI9014
aI9230
aI9485
aI9512
asS'AAAC'
p28
(lp29
I553
aI639
aI1025
aI1170
aI1210
aI1220
aI1390
aI1610
aI1942
aI1968
aI2419
aI2485
aI2734
aI2820
aI2920
aI3673
aI3882
aI3965
aI4012
aI4121
aI4421
aI4719
aI4778
aI4996
aI5043
aI5066
aI5092
aI5763
aI5875
aI5941
aI6079
aI6085
aI6212
aI6224
aI6452
aI6506
aI6568
aI6959
aI7026
aI7112
aI7298
aI7320
aI7473
aI7727
aI7916
aI8121
aI8265
aI8451
aI8502
aI8563
aI8573
aI8587
aI9023
aI9165
aI9227
aI9791
asS'GAGC'
p30
(lp31
I594
aI831
aI1121
aI1241
aI1403
aI1544
aI1620
aI1736
aI1784
aI1916
aI2087
aI2346
aI2606
aI2659
aI2958
aI2963
aI3304
aI3428
aI3660
aI4215
aI4635
aI4751
aI4782
aI5000
aI5432
aI5812
aI6186
aI6370
aI6512
aI6800
aI6900
aI7262
aI7541
aI8233
aI8239
aI8481
aI8965
aI9011
aI9349
aI9367
aI9429
aI9539
aI9619
aI9916
aI9959
asS'AAAG'
p32
(lp33
I45
aI289
aI980
aI1038
aI1073
aI1238
aI1707
aI2389
aI2981
aI3047
aI3143
aI3292
aI3349
aI3635
aI3827
aI4197
aI4276
aI4340
aI4347
aI4906
aI4942
aI5253
aI5399
aI5458
aI5835
aI6521
aI6638
aI6950
aI7057
aI7070
aI7087
aI7285
aI7494
aI7654
aI7781
aI7911
aI7968
aI8087
aI8385
aI8407
aI8638
aI8662
aI8988
aI9001
aI9058
aI9062
aI9137
aI9418
aI9682
aI9939
asS'AGTT'
p34
(lp35
I124
aI154
aI357
aI367
aI472
aI542
aI982
aI1589
aI2455
aI2564
aI2678
aI2785
aI3188
aI3318
aI4248
aI4516
aI4611
aI4768
aI5178
aI5624
aI5887
aI5922
aI6461
aI6640
aI6952
aI6967
aI7241
aI7511
aI7613
aI7646
aI7945
aI8374
aI8609
aI8818
aI9160
aI9615
asS'CCAC'
p36
(lp37
I113
aI282
aI527
aI743
aI802
aI1480
aI1491
aI1516
aI2121
aI2152
aI2552
aI2556
aI2669
aI2874
aI2997
aI3559
aI4404
aI4731
aI4901
aI4966
aI5074
aI8298
aI9018
aI9247
aI9526
aI9557
aI9766
asS'AACA'
p38
(lp39
I479
aI1211
aI1221
aI1828
aI1922
aI1943
aI1969
aI2044
aI2072
aI2486
aI2735
aI2810
aI3253
aI3403
aI3674
aI3748
aI4027
aI4201
aI4267
aI4604
aI5044
aI5603
aI5689
aI5764
aI5861
aI6086
aI6213
aI6225
aI6286
aI6391
aI6538
aI6668
aI7113
aI7299
aI7610
aI7728
aI7917
aI8351
aI8452
aI8458
aI9024
aI9787
aI9952
asS'AAAT'
p40
(lp41
I510
aI537
aI822
aI1602
aI1691
aI1761
aI1995
aI2832
aI3061
aI3336
aI3359
aI3406
aI4023
aI4287
aI5111
aI5278
aI6240
aI6302
aI6387
aI6502
aI6608
aI6844
aI6927
aI7093
aI7149
aI7302
aI7806
aI8035
aI8547
aI9094
asS'ACAA'
p42
(lp43
I535
aI1022
aI1222
aI1879
aI1923
aI2042
aI2073
aI2219
aI3141
aI3404
aI3749
aI3761
aI3962
aI4238
aI4265
aI4337
aI4429
aI4487
aI5041
aI5089
aI5311
aI5419
aI5690
aI5919
aI6167
aI6214
aI6226
aI6287
aI6519
aI6733
aI7107
aI7300
aI7317
aI7399
aI7470
aI7918
aI8645
aI8660
aI8938
aI9129
aI9157
aI9788
asS'GAAT'
p44
(lp45
I48
aI54
aI65
aI303
aI308
aI628
aI737
aI893
aI1265
aI1850
aI2001
aI2101
aI2369
aI2392
aI2746
aI2843
aI2907
aI3076
aI3097
aI3175
aI3207
aI3537
aI3733
aI3786
aI3975
aI4230
aI4446
aI4799
aI4945
aI5237
aI5999
aI6790
aI7455
aI7642
aI7801
aI7828
aI7975
aI8355
aI8619
aI8723
aI9500
aI9579
aI9675
aI9729
aI9857
asS'TTAG'
p46
(lp47
I496
aI1151
aI1476
aI1638
aI1685
aI1844
aI1998
aI2111
aI2449
aI2457
aI2471
aI3275
aI3462
aI3471
aI3769
aI3776
aI4397
aI4552
aI4645
aI4773
aI4876
aI5334
aI5493
aI5945
aI6116
aI6361
aI7555
aI8612
aI8930
aI9333
aI9496
aI9864
aI9883
asS'TTAC'
p48
(lp49
I3
aI169
aI544
aI580
aI697
aI766
aI904
aI1324
aI2315
aI2432
aI2526
aI2897
aI3139
aI3387
aI3477
aI3889
aI4055
aI4147
aI4335
aI4787
aI4916
aI4954
aI5039
aI5059
aI5228
aI5309
aI5353
aI5582
aI5720
aI6157
aI6963
aI6970
aI7382
aI7630
aI8205
aI8209
aI8272
aI8358
aI8892
aI9319
aI9980
asS'TTAA'
p50
(lp51
I278
aI345
aI485
aI508
aI974
aI1578
aI1774
aI1826
aI1871
aI2767
aI2954
aI3059
aI3251
aI3880
aI4151
aI4614
aI5157
aI5209
aI5572
aI5644
aI5727
aI5761
aI5939
aI6629
aI6874
aI6941
aI7238
aI7532
aI7804
aI8142
aI8544
aI8557
aI8561
aI8784
aI8862
aI9162
aI9288
aI9568
aI9612
aI9851
asS'TATT'
p52
(lp53
I372
aI421
aI506
aI763
aI985
aI1286
aI1605
aI1683
aI1824
aI2108
aI2311
aI2721
aI2847
aI2992
aI3555
aI3702
aI3894
aI3984
aI4157
aI4294
aI4643
aI5579
aI5704
aI6114
aI6245
aI6424
aI8163
aI8332
aI8542
aI9710
aI9743
asS'GAAC'
p54
(lp55
I72
aI272
aI478
aI693
aI827
aI1117
aI1553
aI1658
aI2071
aI2594
aI3114
aI3217
aI3257
aI3402
aI3740
aI3747
aI3865
aI4200
aI4581
aI5349
aI5485
aI5542
aI5710
aI5738
aI5860
aI6110
aI6258
aI6537
aI6667
aI7065
aI7082
aI7519
aI7960
aI8350
aI8868
aI9519
aI9786
asS'GAAA'
p56
(lp57
I44
aI288
aI552
aI821
aI1218
aI1237
aI1601
aI1609
aI1689
aI1941
aI1967
aI2388
aI3289
aI3633
aI3672
aI4120
aI4712
aI4777
aI4992
aI5063
aI5110
aI5252
aI5276
aI6210
aI6220
aI6239
aI6301
aI6451
aI6567
aI6637
aI6840
aI6957
aI7056
aI7086
aI7111
aI7493
aI7653
aI7780
aI8034
aI8086
aI8120
aI8264
aI8382
aI8450
aI8501
aI9022
aI9057
aI9061
aI9093
aI9226
asS'GAAG'
p58
(lp59
I243
aI365
aI429
aI490
aI999
aI1142
aI1195
aI1344
aI1509
aI2018
aI2333
aI2632
aI2676
aI3125
aI3316
aI3491
aI3627
aI3715
aI4609
aI4697
aI4806
aI5138
aI5194
aI5295
aI5588
aI5930
aI5957
aI6016
aI6092
aI6148
aI6194
aI6530
aI6676
aI6737
aI7353
aI7424
aI7427
aI7662
aI7787
aI8177
aI8280
aI8538
aI8627
aI8713
aI9435
aI9592
asS'GGAC'
p60
(lp61
I110
aI292
aI411
aI516
aI725
aI843
aI888
aI1085
aI1094
aI1355
aI1642
aI2040
aI2320
aI2638
aI2903
aI3022
aI3231
aI3649
aI3960
aI4177
aI4898
aI5087
aI5248
aI5917
aI6126
aI6231
aI6654
aI7205
aI7315
aI7468
aI7822
aI8106
aI8378
aI8390
aI8419
aI9127
aI9399
aI9412
asS'GCTG'
p62
(lp63
I29
aI296
aI458
aI943
aI1341
aI1369
aI1792
aI2037
aI2051
aI2574
aI2590
aI2779
aI2968
aI2974
aI3430
aI3522
aI3926
aI4217
aI4637
aI5012
aI5034
aI5080
aI5325
aI5346
aI5429
aI5696
aI5823
aI6123
aI6367
aI6415
aI6418
aI6890
aI6974
aI7103
aI7273
aI7409
aI7434
aI7669
aI7770
aI7903
aI7994
aI8125
aI8976
aI9193
aI9217
aI9927
aI9990
asS'GCTC'
p64
(lp65
I565
aI947
aI1179
aI1415
aI1431
aI1799
aI2031
aI2283
aI2293
aI2399
aI2415
aI2854
aI3413
aI3852
aI3872
aI4205
aI4857
aI4924
aI4950
aI4963
aI5148
aI5167
aI5203
aI5568
aI5911
aI5948
aI6019
aI6131
aI6342
aI6533
aI7183
aI7619
aI7761
aI7773
aI8017
aI8153
aI8283
aI8483
aI8688
aI8696
aI8748
aI9315
aI9806
asS'GCTA'
p66
(lp67
I58
aI104
aI449
aI833
aI1123
aI1822
aI2057
aI2225
aI2411
aI2694
aI2883
aI3306
aI3453
aI3805
aI4194
aI4887
aI5396
aI5402
aI5434
aI5447
aI5507
aI5960
aI5992
aI6070
aI6468
aI6613
aI6923
aI7001
aI7009
aI7019
aI7813
aI8603
aI8657
aI8692
aI9300
aI9351
aI9431
aI9440
aI9655
asS'ATAA'
p68
(lp69
I670
aI739
aI1136
aI1160
aI1207
aI1499
aI2163
aI2817
aI2979
aI3108
aI3408
aI3825
aI3836
aI4025
aI4345
aI4418
aI4890
aI5547
aI5592
aI5788
aI5846
aI6350
aI6389
aI6504
aI6719
aI7091
aI7147
aI7296
aI7304
aI7370
aI7388
aI7574
aI7638
aI8551
aI8999
aI9680
aI9950
asS'ATAC'
p70
(lp71
I67
aI134
aI228
aI619
aI895
aI1052
aI1279
aI1467
aI1572
aI2003
aI2014
aI2103
aI2118
aI2173
aI2232
aI2407
aI2614
aI2748
aI3361
aI3573
aI3788
aI4252
aI4558
aI5264
aI5386
aI5417
aI5634
aI5819
aI5971
aI6009
aI6170
aI6317
aI6907
aI7269
aI7486
aI8196
aI8244
aI8517
aI8911
aI8972
aI9447
aI9823
aI9923
asS'CCAT'
p72
(lp73
I259
aI319
aI615
aI668
aI760
aI1173
aI1248
aI1290
aI1674
aI2006
aI2082
aI2307
aI2405
aI2515
aI2879
aI3158
aI3384
aI3834
aI3840
aI4476
aI4549
aI4677
aI4693
aI4790
aI5188
aI5371
aI5392
aI5680
aI5750
aI6022
aI6140
aI6202
aI6315
aI6543
aI6587
aI6865
aI6938
aI7332
aI7360
aI7604
aI7940
aI7981
aI8242
aI9379
asS'ATAG'
p74
(lp75
I252
aI645
aI716
aI880
aI1156
aI1566
aI1587
aI1808
aI1819
aI2562
aI2886
aI3604
aI4132
aI4260
aI4314
aI4669
aI4703
aI4761
aI5339
aI5555
aI6375
aI6564
aI6882
aI7095
aI7457
aI7644
aI8117
aI8477
aI9079
aI9132
aI9171
aI9364
asS'GCTT'
p76
(lp77
I493
aI664
aI1529
aI1546
aI1562
aI1665
aI1738
aI1869
aI2209
aI2440
aI3131
aI3235
aI3249
aI3342
aI3615
aI3956
aI5037
aI5057
aI5083
aI5315
aI5441
aI5867
aI6267
aI6495
aI6593
aI6633
aI7194
aI7311
aI7345
aI7464
aI7529
aI8061
aI8623
aI8671
aI9104
aI9286
aI9331
aI9566
aI9838
aI9867
aI9881
asS'CCAA'
p78
(lp79
I6
aI12
aI79
aI137
aI149
aI312
aI583
aI1071
aI1406
aI2203
aI2483
aI2793
aI2830
aI2870
aI2918
aI2988
aI3300
aI3334
aI3570
aI3791
aI4006
aI4184
aI4740
aI4755
aI4904
aI4940
aI5734
aI5878
aI6082
aI6284
aI6500
aI6983
aI7068
aI7742
aI8456
aI8571
aI8762
aI9560
aI9647
aI9897
asS'ATTT'
p80
(lp81
I578
aI764
aI986
aI1250
aI2109
aI2312
aI2341
aI2533
aI2547
aI2834
aI2993
aI3985
aI4295
aI5103
aI5212
aI5525
aI5580
aI6483
aI6872
aI7552
aI9232
aI9491
aI9711
aI9812
aI9965
asS'AACG'
p82
(lp83
I14
aI38
aI672
aI828
aI836
aI1118
aI1391
aI1501
aI1611
aI1659
aI1938
aI2727
aI3115
aI3258
aI3326
aI3425
aI4013
aI4186
aI4720
aI4757
aI4779
aI4997
aI5517
aI5543
aI5790
aI6453
aI6507
aI7083
aI7390
aI8122
aI8266
aI8532
aI8553
aI8764
aI8869
aI8907
aI8940
aI9166
aI9228
aI9520
aI9562
aI9792
asS'TGTG'
p84
(lp85
I460
aI852
aI1103
aI1741
aI1781
aI2424
aI2781
aI3432
aI3434
aI3935
aI3998
aI4219
aI4736
aI4854
aI5014
aI5016
aI5360
aI5444
aI5684
aI5707
aI6037
aI6554
aI6663
aI6785
aI6976
aI7041
aI7164
aI7956
aI8066
aI8216
aI8402
aI8600
aI8684
aI8841
aI9180
aI9187
aI9214
aI9382
aI9631
aI9815
asS'ATAT'
p86
(lp87
I226
aI418
aI420
aI617
aI762
aI1050
aI1570
aI1604
aI1670
aI2143
aI2145
aI2540
aI2689
aI2720
aI2944
aI2946
aI2991
aI3338
aI3610
aI3932
aI3977
aI3979
aI4312
aI4595
aI4597
aI4642
aI4792
aI5304
aI5703
aI6242
aI6244
aI6562
aI6877
aI6990
aI6992
aI8331
aI8475
aI8515
aI8549
aI9696
aI9742
asS'CCAG'
p88
(lp89
I218
aI355
aI1440
aI1458
aI2280
aI2453
aI2629
aI2662
aI3037
aI3669
aI3849
aI4077
aI4246
aI4534
aI4803
aI5134
aI5464
aI5622
aI5660
aI5815
aI5978
aI6033
aI6249
aI6547
aI6581
aI7006
aI7265
aI7377
aI7650
aI8654
aI8743
aI8801
aI8968
aI9262
aI9372
aI9919
asS'TAAG'
p90
(lp91
I60
aI205
aI346
aI688
aI876
aI975
aI1188
aI1699
aI1866
aI2098
aI2164
aI2325
aI2768
aI2955
aI3198
aI4152
aI4683
aI5126
aI5158
aI5593
aI5645
aI5885
aI5962
aI6630
aI7217
aI7239
aI7371
aI7639
aI7833
aI8143
aI8307
aI9463
aI9569
aI9613
aI9852
asS'TAAC'
p92
(lp93
I37
aI279
aI671
aI740
aI799
aI835
aI1137
aI1500
aI1827
aI1872
aI1901
aI2711
aI2809
aI2827
aI3009
aI3109
aI3252
aI3266
aI3325
aI3424
aI3837
aI4026
aI4615
aI4891
aI5452
aI5573
aI5728
aI5789
aI6390
aI6572
aI6712
aI7389
aI8070
aI8552
aI8785
aI9951
asS'TAAA'
p94
(lp95
I509
aI979
aI1037
aI1169
aI1208
aI1389
aI1706
aI2733
aI2818
aI2980
aI3046
aI3060
aI3348
aI3826
aI3881
aI4196
aI4346
aI4419
aI5398
aI5456
aI5762
aI5940
aI6505
aI6607
aI6925
aI7024
aI7092
aI7148
aI7297
aI7805
aI7915
aI7967
aI8545
aI8562
aI9000
aI9163
aI9417
aI9681
asS'TGTC'
p96
(lp97
I23
aI31
aI816
aI1029
aI2127
aI2970
aI3153
aI3499
aI3695
aI3801
aI3817
aI3919
aI3948
aI4046
aI4072
aI4290
aI4364
aI4479
aI4491
aI4823
aI5362
aI5619
aI5628
aI6322
aI6410
aI6464
aI6754
aI6806
aI7133
aI7213
aI7739
aI7850
aI8437
aI9067
aI9111
aI9509
aI9596
aI9717
aI9734
aI9968
aI9992
asS'TGTA'
p98
(lp99
I194
aI469
aI548
aI730
aI874
aI1019
aI1186
aI1284
aI1387
aI1697
aI2618
aI3264
aI3436
aI3982
aI4415
aI4466
aI4639
aI4866
aI5018
aI5240
aI5825
aI6198
aI7117
aI7275
aI7686
aI7881
aI7996
aI8068
aI8102
aI8171
aI8218
aI8367
aI8808
aI8952
aI8978
aI9107
aI9182
aI9708
aI9929
asS'TCTT'
p100
(lp101
I158
aI433
aI849
aI1423
aI1474
aI1495
aI1540
aI1772
aI1927
aI1974
aI1977
aI2764
aI3064
aI3469
aI3516
aI3533
aI4032
aI4145
aI4224
aI4233
aI4493
aI4771
aI4874
aI4952
aI5207
aI5423
aI5570
aI5630
aI5642
aI5829
aI5890
aI6305
aI6396
aI6704
aI6723
aI7157
aI7279
aI7704
aI8111
aI8597
aI8730
aI8782
aI8874
aI8982
aI9149
aI9277
aI9317
aI9479
aI9604
aI9628
aI9933
aI9994
asS'ACTT'
p102
(lp103
I99
aI482
aI695
aI1056
aI1326
aI1574
aI1903
aI2421
aI2922
aI3011
aI3552
aI3641
aI3685
aI3767
aI3891
aI3967
aI4149
aI4381
aI4539
aI4840
aI5094
aI5351
aI5943
aI6162
aI6616
aI6671
aI6771
aI6961
aI7322
aI7475
aI7867
aI7962
aI8207
aI8859
aI8902
aI9087
aI9665
asS'TAAT'
p104
(lp105
I166
aI486
aI643
aI1005
aI1148
aI1161
aI1579
aI1775
aI2274
aI2339
aI2718
aI3106
aI3409
aI4066
aI4258
aI4463
aI5210
aI5548
aI5714
aI5847
aI6351
aI6720
aI6875
aI6942
aI7305
aI7445
aI7533
aI7575
aI7636
aI8558
aI8863
aI9289
aI9810
asS'GTGG'
p106
(lp107
I465
aI840
aI915
aI1742
aI2068
aI3092
aI3146
aI3286
aI3723
aI3860
aI4209
aI4509
aI4709
aI5004
aI5289
aI5512
aI6038
aI6431
aI6555
aI6664
aI6696
aI7073
aI7165
aI7626
aI7957
aI8685
aI8842
aI9383
aI9722
asS'TCTG'
p108
(lp109
I188
aI325
aI337
aI424
aI591
aI791
aI1176
aI1230
aI1330
aI1399
aI1723
aI1954
aI2264
aI2401
aI2521
aI2543
aI3657
aI4048
aI4895
aI4921
aI5215
aI6412
aI6726
aI7051
aI7211
aI7616
aI7763
aI7931
aI8019
aI8190
aI8950
aI9305
aI9659
aI9715
aI9732
aI9746
asS'CTCA'
p110
(lp111
I143
aI1416
aI2032
aI2284
aI2376
aI2416
aI2511
aI2814
aI2950
aI3758
aI3820
aI3853
aI4385
aI4529
aI4601
aI4626
aI4661
aI4844
aI4925
aI5532
aI5744
aI6775
aI6815
aI6824
aI7419
aI7693
aI7699
aI7871
aI8443
aI8484
aI8749
aI9028
aI9322
aI9534
aI9971
asS'CTCC'
p112
(lp113
I216
aI237
aI525
aI757
aI864
aI1044
aI1180
aI1365
aI1432
aI1800
aI1856
aI2294
aI2667
aI2775
aI2789
aI2863
aI3414
aI4061
aI4474
aI4618
aI4728
aI4964
aI5168
aI5367
aI5731
aI5905
aI5912
aI6020
aI6044
aI6132
aI6263
aI6343
aI7774
aI8284
aI8679
aI8915
aI8923
aI9114
aI9204
aI9345
asS'TCTC'
p114
(lp115
I215
aI236
aI323
aI756
aI863
aI949
aI1364
aI2375
aI2519
aI2666
aI2788
aI2862
aI2949
aI3419
aI3757
aI3819
aI3874
aI4060
aI4091
aI4384
aI4528
aI4600
aI4660
aI4843
aI4859
aI5205
aI5531
aI5743
aI5904
aI5953
aI6043
aI6103
aI6174
aI6774
aI6823
aI7152
aI7692
aI7698
aI7870
aI8001
aI8003
aI8344
aI8831
aI9043
aI9113
aI9275
aI9533
aI9970
asS'CGTT'
p116
(lp117
I276
aI343
aI901
aI971
aI1183
aI1396
aI1505
aI1613
aI1833
aI1842
aI2382
aI2430
aI2466
aI2503
aI2568
aI2641
aI3460
aI3496
aI3698
aI3813
aI3887
aI4053
aI4188
aI4665
aI6135
aI6311
aI6439
aI6455
aI7392
aI7712
aI8339
aI8414
aI8527
aI8555
aI8766
aI9757
asS'TCTA'
p118
(lp119
I370
aI1167
aI1864
aI1959
aI2337
aI2716
aI2731
aI2856
aI2925
aI3007
aI3044
aI3068
aI3079
aI3224
aI3921
aI4292
aI4366
aI4795
aI4825
aI4987
aI5883
aI6710
aI6756
aI6918
aI7135
aI7215
aI7831
aI7852
aI7965
aI8155
aI8879
aI9598
aI9688
aI9699
aI9802
aI9808
aI9820
asS'TGTT'
p120
(lp121
I190
aI751
aI989
aI1677
aI1947
aI2266
aI2929
aI3028
aI3210
aI3296
aI3391
aI3774
aI4069
aI4142
aI4395
aI4519
aI4914
aI4934
aI5181
aI5307
aI5652
aI5698
aI5753
aI5851
aI6155
aI6330
aI6627
aI6707
aI7225
aI7752
aI7797
aI7809
aI7984
aI8186
aI8203
aI8709
aI8828
aI9189
aI9494
aI9817
asS'AAGG'
p122
(lp123
I81
aI244
aI290
aI1074
aI1143
aI1700
aI2205
aI2221
aI2326
aI3048
aI3126
aI3199
aI3716
aI4153
aI4431
aI4502
aI4684
aI5931
aI6062
aI6149
aI6228
aI6522
aI6677
aI7354
aI7562
aI7920
aI8308
aI8628
aI8663
aI9002
aI9138
aI9459
aI9649
asS'CTAG'
p124
(lp125
I331
aI609
aI1124
aI1435
aI1525
aI1598
aI2412
aI2857
aI3313
aI3806
aI4796
aI4979
aI4988
aI5403
aI5411
aI5435
aI5993
aI6074
aI6380
aI6687
aI6715
aI7010
aI7136
aI7792
aI8693
aI9432
aI9689
aI9700
aI9803
asS'CGGA'
p126
(lp127
I383
aI476
aI515
aI819
aI858
aI887
aI1093
aI1115
aI1204
aI2367
aI2580
aI2604
aI2672
aI3018
aI3230
aI3576
aI3713
aI4129
aI5121
aI5192
aI5806
aI5916
aI6144
aI6299
aI7204
aI7256
aI7732
aI7778
aI8052
aI8262
aI8389
aI8536
aI8815
aI8897
aI8942
aI8959
aI9046
aI9091
aI9398
aI9910
asS'AAGC'
p128
(lp129
I139
aI206
aI314
aI347
aI491
aI1039
aI1189
aI1708
aI1867
aI2254
aI2610
aI3350
aI3492
aI3751
aI3828
aI4240
aI4277
aI4341
aI4348
aI4742
aI4807
aI4907
aI5313
aI5400
aI5594
aI5646
aI5692
aI5958
aI6017
aI6531
aI6631
aI6738
aI7058
aI7192
aI7372
aI7663
aI7667
aI7788
aI7834
aI7969
aI8144
aI8281
aI8386
aI8639
aI8714
aI9464
aI9853
asS'CTAC'
p130
(lp131
I76
aI105
aI502
aI598
aI602
aI1303
aI1311
aI1814
aI1960
aI2058
aI2226
aI2258
aI2695
aI2823
aI3069
aI3454
aI3457
aI4585
aI5408
aI5448
aI5488
aI5508
aI6071
aI6160
aI6469
aI6614
aI6919
aI7020
aI7339
aI8658
aI8880
aI9200
aI9207
aI9301
aI9599
aI9753
asS'AAGA'
p132
(lp133
I46
aI61
aI151
aI390
aI689
aI877
aI1000
aI1239
aI1345
aI1510
aI2019
aI2099
aI2165
aI2390
aI2633
aI2956
aI2982
aI3302
aI3628
aI4198
aI4698
aI4943
aI5139
aI5159
aI5254
aI5296
aI5589
aI5736
aI5963
aI6093
aI6600
aI6735
aI7088
aI7109
aI7218
aI7422
aI7425
aI7428
aI7495
aI7640
aI7655
aI7674
aI7973
aI8178
aI8408
aI9059
aI9063
aI9419
aI9570
aI9683
asS'CTAA'
p134
(lp135
I59
aI165
aI204
aI642
aI798
aI834
aI1004
aI1168
aI1865
aI2324
aI2338
aI2710
aI2717
aI2732
aI2826
aI3008
aI3045
aI3105
aI3197
aI3324
aI4195
aI4682
aI5397
aI5451
aI5455
aI5713
aI5884
aI5961
aI6571
aI6711
aI6924
aI7023
aI7216
aI7832
aI7966
aI9416
aI9809
asS'GTGA'
p136
(lp137
I96
aI241
aI735
aI853
aI1067
aI1104
aI1235
aI1351
aI1782
aI1848
aI2216
aI2425
aI2494
aI2744
aI2782
aI3784
aI3999
aI4220
aI4881
aI5414
aI5473
aI5522
aI5708
aI6208
aI6273
aI6510
aI6528
aI6786
aI7031
aI7042
aI7063
aI7168
aI7581
aI8032
aI8175
aI8231
aI8721
aI9632
aI9762
aI9827
asS'GTGC'
p138
(lp139
I264
aI461
aI612
aI651
aI884
aI968
aI1198
aI1413
aI1663
aI1982
aI2137
aI2200
aI2250
aI2463
aI2649
aI2702
aI2771
aI3936
aI4590
aI4648
aI4737
aI4855
aI5143
aI5197
aI5380
aI5445
aI5685
aI6058
aI6447
aI6834
aI6977
aI7357
aI7558
aI8276
aI8403
aI8601
aI8649
aI8669
aI8739
aI8746
aI9118
aI9174
aI9215
aI9438
aI9836
aI9845
asS'GGCT'
p140
(lp141
I103
aI448
aI457
aI663
aI942
aI946
aI1340
aI1430
aI1528
aI2030
aI2050
aI2056
aI2208
aI2224
aI2292
aI2398
aI2439
aI2573
aI2693
aI2853
aI3955
aI4193
aI4949
aI5011
aI5079
aI5345
aI5440
aI5567
aI5910
aI6069
aI6341
aI6592
aI7000
aI7018
aI7102
aI7182
aI7310
aI7408
aI7993
aI8016
aI8687
aI9103
aI9299
aI9330
aI9565
aI9880
asS'ACGA'
p142
(lp143
I15
aI39
aI301
aI656
aI804
aI829
aI931
aI1087
aI1098
aI1119
aI1469
aI1629
aI1939
aI2016
aI2123
aI2156
aI2234
aI2299
aI2905
aI3167
aI3170
aI3259
aI3426
aI4633
aI4721
aI4758
aI4780
aI4998
aI5061
aI5250
aI5544
aI5614
aI6276
aI7084
aI7517
aI8380
aI8811
aI8886
aI8908
aI9020
aI9229
asS'ACGC'
p144
(lp145
I146
aI294
aI699
aI1090
aI1305
aI1392
aI1502
aI2060
aI2409
aI2528
aI2876
aI3163
aI3233
aI3331
aI3583
aI3910
aI4961
aI5498
aI5505
aI5791
aI5821
aI6578
aI6921
aI6972
aI7271
aI7570
aI7658
aI7937
aI8123
aI8494
aI8533
aI8755
aI8894
aI8974
aI9242
aI9325
aI9671
aI9925
asS'AAGT'
p146
(lp147
I8
aI366
aI430
aI976
aI981
aI1196
aI1224
aI1881
aI2334
aI2677
aI2769
aI2795
aI3144
aI3187
aI3293
aI3317
aI3636
aI4610
aI5127
aI5195
aI5459
aI5836
aI5880
aI5886
aI5921
aI6195
aI6639
aI6951
aI7071
aI7240
aI7286
aI7744
aI7782
aI7912
aI8088
aI8323
aI8539
aI8647
aI8989
aI9159
aI9436
aI9593
aI9614
aI9940
asS'CAAA'
p148
(lp149
I536
aI638
aI1023
aI1072
aI1760
aI1990
aI2418
aI2484
aI2831
aI2919
aI3142
aI3335
aI3358
aI3405
aI3963
aI4007
aI4022
aI4275
aI4286
aI4338
aI4905
aI4941
aI5042
aI5090
aI5834
aI5874
aI6078
aI6083
aI6386
aI6501
aI6520
aI6949
aI7069
aI7284
aI7301
aI7318
aI7471
aI7725
aI7910
aI8406
aI8572
aI8586
aI8636
aI8661
aI8987
aI9136
aI9789
aI9938
asS'ACGG'
p150
(lp151
I197
aI382
aI455
aI518
aI673
aI837
aI845
aI1644
aI1660
aI2047
aI2317
aI2671
aI2899
aI3017
aI3024
aI3116
aI3575
aI3712
aI4406
aI4930
aI4983
aI5257
aI5518
aI6180
aI6651
aI7120
aI7731
aI8092
aI8136
aI8267
aI8360
aI8814
aI8853
aI8870
aI8941
aI9033
aI9521
aI9563
aI9793
asS'CGGT'
p152
(lp153
I34
aI198
aI519
aI838
aI846
aI1381
aI1661
aI1712
aI1769
aI2095
aI2198
aI2623
aI2742
aI3025
aI3136
aI3353
aI3530
aI3692
aI3877
aI4407
aI4412
aI4440
aI4745
aI4931
aI4984
aI5378
aI6005
aI6056
aI6181
aI6489
aI6694
aI6820
aI7061
aI7121
aI7230
aI7503
aI7716
aI7749
aI7756
aI7953
aI8010
aI8294
aI8667
aI8871
aI9177
aI9407
aI9720
asS'GGCC'
p154
(lp155
I83
aI255
aI795
aI1128
aI1451
aI1522
aI1646
aI2481
aI2498
aI2577
aI2893
aI3050
aI3149
aI3372
aI3505
aI4211
aI4329
aI5259
aI5748
aI6029
aI6053
aI6252
aI6863
aI7037
aI7330
aI7416
aI8007
aI8049
aI8138
aI8310
aI8615
aI8760
aI8796
aI9035
aI9053
aI9140
aI9356
aI9523
asS'GGCA'
p156
(lp157
I636
aI1272
aI1535
aI1751
aI1935
aI2114
aI3118
aI3184
aI3240
aI3547
aI3718
aI3971
aI4020
aI4108
aI4273
aI5098
aI5291
aI5514
aI5552
aI6384
aI6850
aI6947
aI7326
aI7479
aI7549
aI7908
aI8082
aI8634
aI8770
aI8855
aI9295
aI9308
asS'GTGT'
p158
(lp159
I468
aI750
aI1018
aI1696
aI3027
aI3263
aI3295
aI3433
aI3435
aI3694
aI4045
aI4363
aI4414
aI4822
aI4933
aI5015
aI5017
aI5359
aI5361
aI6036
aI6197
aI6409
aI6553
aI6753
aI7224
aI7685
aI7751
aI7796
aI7849
aI7955
aI8067
aI8101
aI8217
aI9179
aI9181
aI9188
aI9508
aI9595
aI9707
aI9816
asS'TAGC'
p160
(lp161
I646
aI1152
aI1436
aI1477
aI1820
aI2194
aI2413
aI2450
aI2458
aI3472
aI3600
aI3605
aI4468
aI4762
aI4877
aI5335
aI5436
aI5946
aI5990
aI6075
aI6362
aI6376
aI6646
aI6883
aI7011
aI8220
aI8694
aI9133
aI9252
aI9334
aI9653
aI9804
aI9832
aI9865
aI9988
asS'TTCT'
p162
(lp163
I157
aI214
aI322
aI369
aI423
aI862
aI1329
aI1398
aI1863
aI1976
aI2518
aI2787
aI2924
aI3067
aI3656
aI4144
aI4383
aI4770
aI4842
aI4873
aI5214
aI5889
aI5903
aI6709
aI6725
aI6773
aI7615
aI7703
aI7869
aI7964
aI8189
aI8343
aI8729
aI8830
aI9532
aI9714
aI9745
aI9801
aI9819
asS'AGGG'
p164
(lp165
I559
aI1126
aI1144
aI1419
aI1442
aI1640
aI1716
aI1754
aI2206
aI2222
aI2473
aI2636
aI2891
aI3283
aI3368
aI3647
aI4018
aI4079
aI4105
aI4566
aI4685
aI5857
aI6027
aI6150
aI6229
aI6382
aI6523
aI7138
aI7413
aI7482
aI7563
aI7679
aI8080
aI8248
aI9003
aI9575
aI9589
aI9623
aI9702
aI9974
asS'AGGA'
p166
(lp167
I42
aI109
aI245
aI291
aI333
aI724
aI1354
aI1687
aI1701
aI2064
aI2327
aI2888
aI3021
aI3631
aI3808
aI4100
aI4607
aI4775
aI4990
aI5136
aI5232
aI5235
aI5274
aI5466
aI5796
aI7735
aI8105
aI8479
aI9126
aI9266
aI9411
aI9498
aI9693
aI9727
asS'AGGC'
p168
(lp169
I82
aI254
aI635
aI662
aI941
aI1271
aI1527
aI1534
aI1750
aI2026
aI2113
aI2438
aI2497
aI3049
aI3127
aI3200
aI3546
aI3717
aI4503
aI4577
aI5747
aI6063
aI6068
aI6251
aI6473
aI6849
aI7017
aI7036
aI7329
aI7407
aI7440
aI7500
aI7907
aI7921
aI8224
aI8309
aI8614
aI8633
aI8664
aI8775
aI9007
aI9139
aI9294
aI9298
aI9311
asS'TCAA'
p170
(lp171
I388
aI1759
aI2170
aI2417
aI3357
aI4285
aI4298
aI4452
aI4602
aI5153
aI5833
aI5873
aI7283
aI7420
aI7448
aI7608
aI7724
aI8530
aI8585
aI8905
aI8946
aI8986
aI9361
aI9937
asS'GATT'
p172
(lp173
I20
aI376
aI385
aI407
aI577
aI677
aI860
aI1322
aI1583
aI1732
aI1795
aI2524
aI2532
aI2546
aI2599
aI3594
aI3622
aI3654
aI3665
aI4688
aI5007
aI5102
aI5226
aI5524
aI5616
aI5725
aI5965
aI6482
aI6871
aI7349
aI8364
aI8410
aI8727
aI8890
aI9231
aI9490
asS'CCCT'
p174
(lp175
I588
aI769
aI1042
aI1080
aI1130
aI1301
aI1484
aI1596
aI1648
aI1854
aI2684
aI3052
aI3180
aI3195
aI3797
aI3916
aI3945
aI3995
aI4138
aI4561
aI5025
aI5267
aI6261
aI6803
aI6858
aI7208
aI8074
aI8200
aI8213
aI8433
aI8566
aI8925
aI9872
asS'GACT'
p176
(lp177
I98
aI174
aI392
aI1002
aI1100
aI1309
aI2236
aI2509
aI2708
aI3311
aI3322
aI3551
aI3766
aI4178
aI4863
aI4977
aI5406
aI5475
aI6127
aI6278
aI6655
aI7430
aI7823
aI8042
aI8779
aI8901
aI9040
aI9086
aI9220
aI9343
aI9548
asS'AGGT'
p178
(lp179
I94
aI130
aI248
aI733
aI882
aI925
aI1075
aI1846
aI2446
aI2583
aI2859
aI3377
aI3481
aI3721
aI4154
aI4316
aI4432
aI4671
aI5162
aI5758
aI5932
aI6678
aI6853
aI7048
aI7171
aI7355
aI7379
aI7459
aI7683
aI7689
aI7794
aI8099
aI8629
aI9460
aI9650
aI9779
asS'TTCG'
p180
(lp181
I126
aI160
aI378
aI474
aI631
aI1591
aI1615
aI1679
aI1979
aI2268
aI2361
aI2566
aI2570
aI2643
aI2849
aI2931
aI3031
aI3237
aI3399
aI3519
aI3624
aI4039
aI4159
aI4438
aI5048
aI5853
aI5967
aI6403
aI6437
aI6642
aI6681
aI6954
aI7159
aI7714
aI7754
aI7990
aI8113
aI8412
aI8820
aI9089
aI9638
aI9840
asS'TCAC'
p182
(lp183
I144
aI201
aI453
aI522
aI775
aI2242
aI2377
aI2512
aI3101
aI3440
aI3639
aI3708
aI3759
aI3780
aI3821
aI4236
aI4485
aI4627
aI4662
aI4926
aI5022
aI5052
aI5285
aI5364
aI5503
aI5533
aI6308
aI6443
aI6517
aI6812
aI6816
aI6912
aI7197
aI8464
aI8492
aI8508
aI8676
aI8847
aI9323
aI9607
aI9669
aI9736
asS'TTCA'
p184
(lp185
I387
aI1758
aI1950
aI2212
aI2384
aI3055
aI3100
aI3271
aI3356
aI4226
aI4235
aI4297
aI4484
aI5029
aI5105
aI5755
aI5832
aI5869
aI5924
aI6307
aI6442
aI6618
aI7196
aI7282
aI7607
aI7723
aI8507
aI8529
aI8846
aI8904
aI8985
aI9151
aI9606
aI9668
aI9936
asS'TTCC'
p186
(lp187
I666
aI1288
aI1425
aI1548
aI1837
aI2181
aI2535
aI2550
aI2995
aI3133
aI3193
aI3213
aI3298
aI3395
aI3484
aI3557
aI3667
aI3687
aI4495
aI4690
aI4938
aI5184
aI5892
aI6138
aI6247
aI6313
aI7227
aI7394
aI7648
aI7896
aI8314
aI8424
aI8428
aI8569
aI8920
aI9279
aI9582
aI9860
aI9870
asS'CACT'
p188
(lp189
I202
aI222
aI329
aI481
aI523
aI1055
aI1316
aI1492
aI2243
aI2761
aI2812
aI3441
aI3562
aI3640
aI3684
aI4538
aI4628
aI4967
aI5053
aI5075
aI5365
aI5480
aI6097
aI6670
aI6685
aI6813
aI6913
aI7198
aI7337
aI7544
aI8299
aI8509
aI8579
aI8677
aI9026
aI9664
aI9737
aI9767
asS'GACA'
p190
(lp191
I532
aI869
aI1095
aI1106
aI1261
aI1276
aI1356
aI2041
aI2218
aI2803
aI3449
aI3929
aI3961
aI4095
aI4400
aI4428
aI4723
aI5088
aI5918
aI6095
aI6166
aI6357
aI6732
aI7106
aI7220
aI7316
aI7398
aI7469
aI7497
aI7676
aI8391
aI8937
aI9128
aI9634
aI9662
aI9886
asS'GACC'
p192
(lp193
I111
aI412
aI726
aI806
aI855
aI889
aI1009
aI1069
aI1512
aI1726
aI2158
aI2304
aI2321
aI2654
aI2868
aI2916
aI2984
aI3465
aI3589
aI3650
aI3914
aI4001
aI4547
aI4883
aI4899
aI5658
aI5675
aI6232
aI7078
aI7206
aI7524
aI8420
aI8791
aI8835
aI9400
aI9413
aI9764
asS'GATG'
p194
(lp195
I17
aI814
aI933
aI1255
aI1373
aI2125
aI2301
aI3172
aI3488
aI3566
aI3772
aI3952
aI4389
aI4848
aI4974
aI5221
aI5670
aI6153
aI6602
aI6729
aI6779
aI7044
aI7162
aI7737
aI7875
aI8184
aI8257
aI8498
aI8707
aI8806
aI9048
aI9065
aI9426
aI9486
asS'GATA'
p196
(lp197
I417
aI879
aI1135
aI1159
aI1206
aI1466
aI1569
aI1669
aI2013
aI2142
aI2162
aI2539
aI2688
aI2943
aI4131
aI4311
aI4557
aI4702
aI4760
aI5416
aI5546
aI5591
aI5787
aI5818
aI5970
aI6349
aI6561
aI6718
aI6881
aI6989
aI7090
aI7146
aI7268
aI7387
aI7485
aI8116
aI8910
aI8971
aI9446
aI9679
aI9695
aI9741
aI9922
asS'GACG'
p198
(lp199
I293
aI381
aI517
aI569
aI655
aI844
aI930
aI1086
aI1089
aI1643
aI2298
aI2639
aI2904
aI3023
aI3162
aI3169
aI3232
aI3582
aI3909
aI4632
aI4960
aI4982
aI5249
aI5256
aI6275
aI6577
aI6650
aI7516
aI7569
aI7657
aI7936
aI8026
aI8107
aI8379
aI8754
aI8813
aI8885
aI9032
aI9241
asS'GATC'
p200
(lp201
I234
aI335
aI340
aI706
aI918
aI1295
aI1362
aI1652
aI2329
aI2373
aI2427
aI3525
aI3755
aI3810
aI4222
aI5283
aI5468
aI5558
aI5808
aI6041
aI6584
aI7258
aI7583
aI7929
aI8944
aI8961
aI9015
aI9268
aI9513
aI9554
aI9749
aI9912
asS'GCCG'
p202
(lp203
I266
aI362
aI443
aI681
aI962
aI1394
aI1452
aI1622
aI1710
aI2139
aI2196
aI2460
aI2578
aI2960
aI3373
aI3494
aI3662
aI4212
aI4242
aI5117
aI5598
aI5609
aI6054
aI6107
aI6364
aI6885
aI6979
aI7178
aI7187
aI7900
aI8008
aI8050
aI8146
aI8260
aI8292
aI8616
aI9054
aI9357
asS'AGAC'
p204
(lp205
I173
aI391
aI1001
aI1260
aI1275
aI1511
aI2653
aI2707
aI2915
aI2983
aI3448
aI3464
aI3550
aI3581
aI4399
aI4427
aI4546
aI4981
aI5255
aI5405
aI6094
aI6356
aI7077
aI7219
aI7429
aI7496
aI7656
aI7675
aI7935
aI8025
aI8884
aI8900
aI9031
aI9240
aI9885
asS'ATCT'
p206
(lp207
I235
aI336
aI755
aI1175
aI1363
aI1926
aI1953
aI2374
aI2542
aI2948
aI3063
aI3078
aI3515
aI3756
aI4223
aI4232
aI4599
aI4794
aI5422
aI5828
aI6042
aI6304
aI6722
aI6917
aI7151
aI7278
aI7830
aI7930
aI8596
aI8878
aI8949
aI8981
aI9148
aI9274
aI9478
aI9603
aI9658
aI9698
aI9731
aI9932
asS'GCCC'
p208
(lp209
I256
aI1041
aI1129
aI1191
aI1300
aI1438
aI1594
aI1647
aI2682
aI3051
aI3382
aI4169
aI4182
aI4753
aI5072
aI5132
aI5199
aI6030
aI6253
aI6282
aI6296
aI6802
aI7374
aI7587
aI7979
aI8432
aI8716
aI8741
aI8797
aI9244
aI9377
aI9524
asS'GCCA'
p210
(lp211
I148
aI318
aI614
aI1405
aI1479
aI2202
aI2404
aI2452
aI2482
aI2628
aI2661
aI2878
aI3333
aI3569
aI3848
aI4005
aI4245
aI4739
aI5679
aI5749
aI5814
aI5977
aI6499
aI6580
aI6864
aI6982
aI7264
aI7331
aI7359
aI7939
aI8241
aI8761
aI8967
aI9646
aI9896
aI9918
asS'CCGG'
p212
(lp213
I778
aI857
aI1380
aI1428
aI1448
aI1520
aI1711
aI1728
aI2197
aI2579
aI2622
aI2741
aI3135
aI3229
aI4327
aI4411
aI5908
aI5915
aI6051
aI6055
aI6298
aI6345
aI6819
aI7100
aI7179
aI7229
aI7489
aI7748
aI7777
aI7888
aI8009
aI8051
aI8261
aI8293
aI8793
aI9406
asS'TACT'
p214
(lp215
I500
aI503
aI545
aI607
aI1325
aI1573
aI1815
aI2174
aI2433
aI2615
aI2824
aI3388
aI3455
aI3890
aI4148
aI4380
aI4839
aI5354
aI5409
aI5449
aI6072
aI6158
aI6161
aI6171
aI6615
aI6770
aI7021
aI7866
aI8206
aI9184
aI9302
aI9320
asS'CTGC'
p216
(lp217
I297
aI326
aI394
aI425
aI710
aI955
aI1177
aI1231
aI1331
aI1766
aI2402
aI2588
aI2975
aI3247
aI4124
aI4180
aI4498
aI4922
aI5035
aI5055
aI5070
aI5081
aI5477
aI6129
aI6280
aI6413
aI6416
aI6419
aI6891
aI7052
aI7432
aI7527
aI7617
aI7670
aI7771
aI8044
aI8126
aI8191
aI8511
aI8576
aI9194
asS'CCGC'
p218
(lp219
I444
aI963
aI1298
aI1367
aI1623
aI1790
aI1875
aI1886
aI2184
aI2777
aI3689
aI4003
aI4172
aI4243
aI4885
aI5115
aI5118
aI5201
aI5599
aI5610
aI5677
aI5985
aI6234
aI6265
aI6365
aI6886
aI6980
aI7188
aI7343
aI7591
aI7898
aI7901
aI8287
aI8430
aI8590
aI9099
aI9284
asS'CAGT'
p220
(lp221
I90
aI356
aI541
aI649
aI937
aI966
aI1537
aI1971
aI2214
aI2261
aI2454
aI2663
aI3038
aI3090
aI3542
aI3855
aI4029
aI4043
aI4247
aI4255
aI4322
aI4361
aI4377
aI4515
aI4588
aI4820
aI4836
aI5623
aI5842
aI6034
aI6393
aI6407
aI6551
aI6751
aI6767
aI6931
aI6966
aI7222
aI7292
aI7510
aI7612
aI7633
aI7695
aI7847
aI7863
aI8160
aI8608
aI8744
aI8995
aI9153
aI9946
aI9954
asS'CCTT'
p222
(lp223
I1
aI85
aI211
aI1081
aI1556
aI1635
aI1858
aI2130
aI2895
aI3053
aI3269
aI3397
aI3743
aI3798
aI4139
aI4331
aI4436
aI4651
aI4870
aI5026
aI5491
aI5561
aI5576
aI5718
aI5894
aI5937
aI7721
aI8140
aI8253
aI8312
aI8422
aI8426
aI8434
aI8505
aI8567
aI8681
aI8837
aI8917
aI8926
aI9529
aI9610
aI9642
aI9848
aI9862
asS'ATCG'
p224
(lp225
I261
aI341
aI919
aI1033
aI1292
aI1653
aI1890
aI2330
aI2428
aI3510
aI3526
aI3612
aI3619
aI3735
aI3811
aI4166
aI4369
aI4828
aI5190
aI5778
aI5804
aI5809
aI5864
aI6001
aI6142
aI6290
aI6428
aI6487
aI6589
aI6759
aI7143
aI7202
aI7254
aI7259
aI7362
aI7535
aI7584
aI7855
aI8058
aI8303
aI8525
aI8957
aI8962
aI9269
aI9502
aI9514
aI9783
aI9908
aI9913
asS'TAGG'
p226
(lp227
I93
aI253
aI332
aI661
aI732
aI881
aI940
aI1125
aI1526
aI1639
aI1686
aI1715
aI1845
aI2112
aI2472
aI2858
aI2887
aI3367
aI3545
aI3807
aI4017
aI4315
aI4576
aI4670
aI4774
aI4989
aI6381
aI7137
aI7439
aI7458
aI7688
aI7793
aI8104
aI8478
aI8613
aI8632
aI9410
aI9497
aI9701
aI9726
asS'CCGA'
p228
(lp229
I70
aI363
aI415
aI530
aI556
aI891
aI1193
aI1216
aI2140
aI2160
aI2296
aI2490
aI2537
aI2698
aI2801
aI2941
aI2961
aI3072
aI3215
aI3374
aI3486
aI3592
aI3652
aI3663
aI4213
aI5538
aI5723
aI6014
aI6108
aI6192
aI6256
aI7080
aI7396
aI7453
aI8371
aI8617
aI9055
aI9347
aI9586
asS'ATCA'
p230
(lp231
I50
aI452
aI539
aI721
aI2008
aI3082
aI3088
aI3439
aI4451
aI4543
aI5021
aI5284
aI5872
aI6024
aI6334
aI6516
aI6846
aI6904
aI6929
aI6994
aI7447
aI8037
aI8158
aI8491
aI8606
aI8675
aI8945
aI9145
aI9776
asS'CAGA'
p232
(lp233
I52
aI172
aI626
aI997
aI1263
aI1274
aI1910
aI2386
aI2630
aI2652
aI3255
aI3549
aI3670
aI3973
aI4228
aI4280
aI4309
aI4387
aI4444
aI4545
aI4804
aI4846
aI5100
aI5293
aI5816
aI5926
aI6237
aI6582
aI6777
aI7266
aI7385
aI7651
aI7873
aI8084
aI8353
aI8883
aI8969
aI9030
aI9263
aI9920
asS'CCTC'
p234
(lp235
I142
aI186
aI589
aI702
aI770
aI789
aI808
aI1043
aI1131
aI1839
aI1855
aI2500
aI2714
aI2774
aI3467
aI3868
aI4058
aI4089
aI4526
aI4620
aI4625
aI4727
aI5741
aI6262
aI7209
aI7418
aI8075
aI8442
aI8914
aI8922
aI9203
aI9469
asS'CAGC'
p236
(lp237
I219
aI958
aI1112
aI1459
aI1830
aI1894
aI2281
aI2751
aI2966
aI3451
aI3850
aI3905
aI4203
aI4353
aI4535
aI4812
aI5146
aI5605
aI5661
aI5766
aI5979
aI6088
aI6121
aI6294
aI6548
aI6743
aI6826
aI6996
aI7007
aI7839
aI8151
aI8290
aI8467
aI8655
aI8802
aI9337
aI9373
aI9450
aI9888
asS'CCTA'
p238
(lp239
I75
aI164
aI597
aI601
aI797
aI1302
aI1434
aI1524
aI1597
aI1813
aI2106
aI2257
aI2323
aI3104
aI3196
aI3507
aI4584
aI4681
aI5170
aI5261
aI5268
aI6379
aI6422
aI7791
aI8398
aI8593
aI9142
aI9199
aI9206
aI9415
aI9752
asS'CCTG'
p240
(lp241
I285
aI403
aI709
aI728
aI866
aI954
aI1282
aI1485
aI1550
aI1649
aI1765
aI1779
aI1963
aI2587
aI2656
aI2685
aI2865
aI3151
aI3181
aI3246
aI3917
aI3946
aI3996
aI4497
aI4562
aI4734
aI5069
aI5244
aI6804
aI6859
aI7039
aI7131
aI7526
aI8201
aI8214
aI8788
aI9037
aI9212
aI9545
aI9873
asS'CAGG'
p242
(lp243
I108
aI723
aI1418
aI1441
aI1749
aI1753
aI2063
aI3282
aI3480
aI3646
aI3720
aI4078
aI4099
aI4606
aI5135
aI5231
aI5465
aI5746
aI5757
aI6026
aI6250
aI6472
aI6848
aI6852
aI7016
aI7328
aI7378
aI7481
aI7499
aI7678
aI8223
aI8247
aI8774
aI9125
aI9297
aI9310
aI9622
aI9778
aI9973
asS'TGGG'
p244
(lp245
I179
aI793
aI841
aI992
aI1059
aI1319
aI1743
aI2053
aI2177
aI2246
aI2357
aI2910
aI3093
aI3147
aI3724
aI3861
aI4035
aI4191
aI4271
aI4510
aI5246
aI6270
aI6339
aI6399
aI6432
aI6556
aI6697
aI6861
aI7308
aI7765
aI8014
aI8021
aI8417
aI8734
aI9050
aI9235
aI9384
aI9551
aI9770
aI9875
asS'ACTC'
p246
(lp247
I524
aI1493
aI2237
aI2510
aI2762
aI2813
aI3219
aI3884
aI4473
aI4617
aI4893
aI5366
aI5730
aI6172
aI6656
aI6814
aI7545
aI7824
aI8580
aI8678
aI8780
aI9027
aI9041
aI9303
aI9321
aI9344
asS'TGGC'
p248
(lp249
I102
aI909
aI945
aI2288
aI2576
aI2692
aI2839
aI3183
aI3954
aI3970
aI4050
aI4210
aI4948
aI5010
aI5078
aI5097
aI5217
aI5290
aI5327
aI5513
aI5551
aI5566
aI6946
aI7325
aI7478
aI7707
aI8686
aI8769
aI9307
aI9355
aI9482
asS'TGGA'
p250
(lp251
I119
aI405
aI410
aI916
aI1084
aI1257
aI1268
aI1371
aI1401
aI1965
aI2039
aI2069
aI2443
aI2592
aI3123
aI3287
aI3959
aI4118
aI4710
aI4897
aI4970
aI5005
aI5086
aI5281
aI5483
aI6039
aI6125
aI6458
aI6665
aI6674
aI6794
aI6869
aI7074
aI7314
aI7467
aI7958
aI8377
aI8866
aI9444
aI9488
asS'TCGC'
p252
(lp253
I25
aI161
aI573
aI920
aI951
aI1592
aI1616
aI1891
aI2626
aI2972
aI3032
aI3279
aI3380
aI3511
aI3520
aI3527
aI3613
aI3803
aI3846
aI3870
aI4040
aI4167
aI4319
aI4622
aI5130
aI5165
aI5839
aI5865
aI6002
aI6105
aI6291
aI6404
aI6466
aI6658
aI6682
aI6691
aI7174
aI7185
aI7233
aI7289
aI7462
aI7585
aI8059
aI8319
aI8439
aI8690
aI8698
aI8821
aI8992
aI9471
aI9515
aI9639
aI9841
aI9943
asS'TCGA'
p254
(lp255
I127
aI270
aI379
aI567
aI632
aI704
aI810
aI928
aI1133
aI1293
aI1654
aI2269
aI2331
aI2932
aI3400
aI3620
aI3625
aI3736
aI3950
aI4093
aI4861
aI5810
aI5854
aI5955
aI5968
aI6184
aI6535
aI6955
aI7144
aI7160
aI7260
aI7826
aI8077
aI8114
aI8346
aI8833
aI8963
aI9511
aI9784
aI9914
asS'TCGG'
p256
(lp257
I33
aI475
aI818
aI1338
aI2094
aI2362
aI2571
aI2850
aI3238
aI3501
aI3876
aI4160
aI4439
aI5191
aI5343
aI5805
aI6143
aI6324
aI6488
aI6590
aI7203
aI7255
aI7363
aI7547
aI7715
aI7755
aI7952
aI7991
aI8005
aI8958
aI9045
aI9090
aI9394
aI9503
aI9719
aI9909
asS'TGGT'
p258
(lp259
I466
aI1164
aI1375
aI1487
aI1694
aI1956
aI2135
aI3345
aI3597
aI3705
aI3843
aI4391
aI4850
aI5357
aI5528
aI5771
aI6100
aI6604
aI6781
aI7166
aI7436
aI7627
aI7877
aI7949
aI8166
aI8843
aI9072
aI9723
aI9760
aI9902
asS'GCCT'
p260
(lp261
I84
aI141
aI163
aI210
aI596
aI701
aI788
aI796
aI953
aI1523
aI2256
aI2499
aI2773
aI2894
aI3150
aI3506
aI4330
aI4525
aI4624
aI4650
aI5260
aI6378
aI6421
aI7038
aI7417
aI7790
aI8139
aI8311
aI8397
aI8441
aI8592
aI9036
aI9141
aI9468
aI9641
aI9847
asS'CCCG'
p262
(lp263
I414
aI1015
aI1192
aI1379
aI1427
aI1519
aI1789
aI2183
aI2190
aI2380
aI2800
aI3591
aI4171
aI5200
aI5537
aI5907
aI5914
aI6013
aI6046
aI6255
aI6297
aI7247
aI7342
aI7452
aI7590
aI7776
aI7887
aI8286
aI8718
aI9098
aI9283
aI9585
asS'ACTG'
p264
(lp265
I393
aI546
aI1027
aI1101
aI1139
aI1317
aI2175
aI2244
aI2434
aI2596
aI2616
aI3111
aI3389
aI3563
aI4123
aI4179
aI4423
aI4455
aI4629
aI4864
aI4968
aI5054
aI5076
aI5355
aI5476
aI5481
aI6098
aI6128
aI6217
aI6279
aI6574
aI6986
aI7431
aI7521
aI8043
aI8510
aI8575
aI9185
aI9221
aI9549
aI9738
aI9768
aI9900
asS'TCGT'
p266
(lp267
I262
aI342
aI772
aI1034
aI1680
aI1841
aI1980
aI2239
aI2429
aI2502
aI2567
aI2644
aI2647
aI3221
aI3421
aI3697
aI3812
aI3858
aI3886
aI4207
aI4370
aI4707
aI4829
aI5049
aI5150
aI5779
aI5782
aI5950
aI6176
aI6429
aI6438
aI6643
aI6760
aI6934
aI7154
aI7536
aI7599
aI7621
aI7624
aI7856
aI8030
aI8304
aI8413
aI8526
aI8582
aI9270
asS'ATCC'
p268
(lp269
I310
aI353
aI401
aI586
aI707
aI1214
aI1296
aI1409
aI1672
aI1763
aI1777
aI1852
aI2147
aI2276
aI3177
aI3227
aI4532
aI4571
aI4679
aI4801
aI5113
aI5469
aI5559
aI5716
aI6190
aI6541
aI6545
aI6585
aI7004
aI7129
aI7245
aI7577
aI9016
aI9096
aI9260
aI9543
aI9555
aI9750
asS'ACAG'
p270
(lp271
I107
aI171
aI1111
aI1262
aI1829
aI1970
aI2260
aI2750
aI3254
aI3450
aI3479
aI4028
aI4098
aI4202
aI4254
aI4308
aI4587
aI4605
aI5230
aI5604
aI5765
aI6087
aI6392
aI6471
aI6965
aI7221
aI7384
aI7498
aI7509
aI7611
aI7632
aI7677
aI8246
aI8352
aI8466
aI8773
aI8882
aI9449
aI9887
aI9953
asS'CGGC'
p272
(lp273
I447
aI456
aI1201
aI1339
aI1429
aI1521
aI1645
aI1934
aI2029
aI2291
aI2349
aI2397
aI2572
aI2754
aI3117
aI3239
aI4328
aI5258
aI5344
aI5439
aI5909
aI6052
aI6591
aI6999
aI7101
aI7548
aI7594
aI7889
aI7992
aI8006
aI8137
aI8227
aI8854
aI9034
aI9102
aI9395
aI9522
aI9564
asS'ACAC'
p274
(lp275
I480
aI533
aI745
aI897
aI1054
aI1096
aI1107
aI1109
aI1313
aI1315
aI2045
aI2154
aI2487
aI2558
aI2736
aI2738
aI2760
aI2804
aI2811
aI2999
aI3243
aI3561
aI3683
aI3710
aI4096
aI4401
aI4724
aI4928
aI6096
aI6669
aI7507
aI7729
aI8132
aI8134
aI8453
aI8459
aI9025
aI9209
aI9256
aI9389
aI9663
aI9982
asS'ATGT'
p276
(lp277
I815
aI1386
aI1676
aI1946
aI2126
aI2928
aI3209
aI3773
aI3934
aI3981
aI4068
aI4289
aI4465
aI4478
aI4490
aI4913
aI5239
aI5306
aI5651
aI5752
aI6154
aI6321
aI6626
aI6662
aI7116
aI7163
aI7738
aI7808
aI7983
aI8065
aI8185
aI8401
aI8708
aI8807
aI9066
aI9110
aI9381
asS'ACCC'
p278
(lp279
I413
aI768
aI1010
aI1245
aI1482
aI1513
aI1518
aI1788
aI2076
aI2305
aI2379
aI2554
aI2985
aI3590
aI3794
aI3915
aI3944
aI3994
aI4137
aI4560
aI5024
aI5266
aI5388
aI5535
aI6011
aI6260
aI7207
aI7341
aI7451
aI7884
aI8072
aI8198
aI8211
aI8565
asS'GGTC'
p280
(lp281
I199
aI520
aI781
aI847
aI926
aI994
aI1076
aI1165
aI1376
aI1382
aI1421
aI1445
aI1488
aI1746
aI1770
aI1957
aI2092
aI2584
aI2624
aI2860
aI3378
aI3531
aI3706
aI3844
aI4317
aI4408
aI4433
aI4441
aI4512
aI4672
aI4985
aI5163
aI5529
aI6101
aI6182
aI6702
aI6821
aI6854
aI7049
aI7172
aI7231
aI7366
aI7460
aI7690
aI7950
aI8250
aI8295
aI8872
aI9626
asS'ACAT'
p282
(lp283
I115
aI230
aI351
aI714
aI870
aI906
aI1212
aI1277
aI1357
aI1806
aI1944
aI2560
aI3675
aI3823
aI3930
aI4268
aI4911
aI4956
aI5045
aI5302
aI5584
aI5802
aI5862
aI5973
aI6319
aI6358
aI6539
aI6895
aI7114
aI7252
aI8392
aI8523
aI8955
aI9258
aI9601
aI9635
aI9906
asS'CGGG'
p284
(lp285
I674
aI779
aI1449
aI1729
aI1897
aI2048
aI2090
aI2318
aI2363
aI2851
aI2900
aI3502
aI3939
aI4161
aI4175
aI4506
aI5330
aI5519
aI6325
aI6346
aI6476
aI6652
aI7180
aI7364
aI7490
aI7819
aI8047
aI8093
aI8268
aI8361
aI8701
aI8758
aI8794
aI9328
aI9504
aI9794
asS'ACGT'
p286
(lp287
I570
aI604
aI1612
aI2228
aI2640
aI2728
aI2806
aI3001
aI3327
aI3459
aI3782
aI4014
aI4187
aI4357
aI4664
aI4816
aI4918
aI5287
aI5510
aI5636
aI6310
aI6445
aI6454
aI6508
aI6747
aI6909
aI7391
aI7843
aI8027
aI8108
aI8274
aI8338
aI8461
aI8519
aI8554
aI8765
aI8849
aI9167
aI9249
aI9391
aI9825
asS'GGAA'
p288
(lp289
I43
aI477
aI820
aI1116
aI1688
aI1966
aI2070
aI2368
aI2593
aI3096
aI3124
aI3288
aI3632
aI3714
aI3732
aI3864
aI4119
aI4608
aI4711
aI4776
aI4991
aI5137
aI5193
aI5236
aI5275
aI5484
aI5859
aI6300
aI6666
aI6675
aI7492
aI7779
aI7959
aI8263
aI8537
aI8867
aI9092
aI9499
aI9578
aI9591
aI9728
asS'AGAA'
p290
(lp291
I47
aI53
aI64
aI551
aI627
aI692
aI998
aI1264
aI1600
aI1657
aI2000
aI2100
aI2387
aI2391
aI2631
aI2675
aI3075
aI3206
aI3256
aI3315
aI3671
aI3739
aI3974
aI4199
aI4229
aI4445
aI4798
aI4805
aI4944
aI5294
aI5541
aI5737
aI5929
aI5998
aI6147
aI6238
aI6566
aI6736
aI6789
aI7110
aI7423
aI7426
aI7641
aI7652
aI7786
aI7974
aI8085
aI8119
aI8349
aI8354
aI9060
aI9225
aI9434
asS'CCGT'
p292
(lp293
I239
aI267
aI275
aI622
aI682
aI748
aI900
aI1016
aI1046
aI1182
aI1395
aI1411
aI1453
aI1802
aI2191
aI2381
aI2461
aI3364
aI3416
aI3495
aI4063
aI4573
aI5471
aI6047
aI6134
aI6809
aI7029
aI7248
aI7579
aI8147
aI8316
aI8719
aI9116
aI9358
aI9402
aI9756
aI9985
asS'AGAG'
p294
(lp295
I62
aI122
aI152
aI690
aI1064
aI1240
aI1346
aI1348
aI1911
aI1913
aI1915
aI2020
aI2022
aI2024
aI2166
aI2634
aI2935
aI2957
aI3303
aI3579
aI3629
aI4103
aI4281
aI4459
aI4554
aI4656
aI4699
aI5140
aI5160
aI5297
aI5927
aI6797
aI6799
aI7034
aI7540
aI8179
aI8181
aI8238
aI9264
aI9366
aI9420
aI9571
aI9573
aI9684
aI9691
aI9958
asS'GGAG'
p296
(lp297
I120
aI246
aI1258
aI1269
aI1402
aI1702
aI1719
aI2065
aI2444
aI2581
aI2605
aI2673
aI2889
aI2913
aI3019
aI3577
aI4101
aI4971
aI5122
aI5233
aI5797
aI6145
aI6459
aI6795
aI7075
aI7681
aI7733
aI8023
aI8053
aI8480
aI8816
aI8898
aI9005
aI9704
asS'GGGT'
p298
(lp299
I181
aI560
aI780
aI993
aI1060
aI1145
aI1420
aI1444
aI1745
aI1755
aI1898
aI2091
aI2178
aI2248
aI2358
aI3284
aI3940
aI4036
aI4082
aI4162
aI4507
aI4511
aI4567
aI5331
aI5520
aI6271
aI6326
aI6400
aI6433
aI6477
aI6526
aI6701
aI7139
aI7365
aI7564
aI8249
aI8269
aI8737
aI9236
aI9385
aI9506
aI9625
aI9772
aI9798
aI9977
asS'ATTG'
p300
(lp301
I21
aI117
aI305
aI373
aI408
aI440
aI678
aI785
aI824
aI872
aI1359
aI1606
aI1733
aI1796
aI1986
aI2084
aI2600
aI2722
aI3595
aI3703
aI3895
aI4112
aI5008
aI5617
aI5682
aI5705
aI5849
aI6337
aI6610
aI6621
aI6792
aI6867
aI6897
aI6944
aI7350
aI8164
aI8333
aI8365
aI8394
aI8826
asS'CTCT'
p302
(lp303
I187
aI324
aI590
aI790
aI948
aI1494
aI2400
aI2520
aI2715
aI2763
aI2855
aI3468
aI3873
aI4059
aI4090
aI4527
aI4858
aI4894
aI4951
aI5204
aI5206
aI5569
aI5742
aI6173
aI7210
aI7762
aI8002
aI8018
aI8154
aI8781
aI9042
aI9276
aI9304
aI9316
aI9807
asS'ATTC'
p304
(lp305
I321
aI377
aI386
aI422
aI630
aI861
aI1287
aI2517
aI2848
aI3099
aI3556
aI3623
aI3655
aI3666
aI4158
aI4483
aI4689
aI5047
aI5902
aI5966
aI6246
aI7606
aI7702
aI7895
aI8411
aI8728
aI9581
aI9637
aI9744
aI9859
asS'GGAT'
p306
(lp307
I334
aI384
aI406
aI676
aI859
aI917
aI1205
aI1321
aI1372
aI1731
aI2328
aI3809
aI4130
aI4687
aI5006
aI5282
aI5467
aI5807
aI6040
aI6152
aI6348
aI6560
aI6870
aI7257
aI7484
aI7736
aI8363
aI8706
aI8943
aI8960
aI9047
aI9267
aI9445
aI9489
aI9553
aI9694
aI9911
asS'ATTA'
p308
(lp309
I168
aI507
aI1150
aI1323
aI1584
aI1684
aI1825
aI1997
aI2309
aI2525
aI2845
aI2953
aI3058
aI3085
aI3274
aI3386
aI3476
aI4301
aI4448
aI4551
aI4644
aI4786
aI5156
aI5227
aI5726
aI6115
aI6360
aI6425
aI6940
aI7237
aI7803
aI8357
aI8543
aI8560
aI8891
asS'AGAT'
p310
(lp311
I813
aI878
aI1158
aI1568
aI3771
aI4310
aI4388
aI4556
aI4701
aI4847
aI4973
aI5101
aI5557
aI5590
aI5669
aI5786
aI5817
aI5964
aI6583
aI6601
aI6717
aI6778
aI7089
aI7267
aI7386
aI7874
aI8183
aI8409
aI8889
aI8970
aI9064
aI9425
aI9921
asS'GCGT'
p312
(lp313
I463
aI913
aI970
aI1233
aI1335
aI1504
aI1625
aI1832
aI2186
aI2465
aI2756
aI3202
aI4052
aI4764
aI4879
aI5002
aI5382
aI5500
aI5981
aI5987
aI7442
aI7596
aI7711
aI8128
aI8229
aI8641
aI9473
aI9834
aI9843
asS'CTTG'
p314
(lp315
I86
aI100
aI850
aI1057
aI1082
aI1530
aI1541
aI1666
aI1739
aI1928
aI2422
aI2441
aI3012
aI3343
aI3534
aI3642
aI3744
aI3799
aI3957
aI3968
aI4033
aI4140
aI4652
aI5084
aI5095
aI5442
aI6163
aI6268
aI6397
aI6496
aI6634
aI6672
aI6705
aI7312
aI7323
aI7346
aI7465
aI7476
aI7705
aI8254
aI8435
aI8598
aI8624
aI8682
aI9105
aI9480
aI9629
aI9643
asS'TGAT'
p316
(lp317
I19
aI233
aI339
aI375
aI1254
aI1361
aI1465
aI1582
aI1651
aI1668
aI1794
aI2012
aI2372
aI2426
aI2523
aI2545
aI2598
aI2687
aI3524
aI3565
aI4221
aI5415
aI5523
aI6481
aI6728
aI6880
aI6988
aI7043
aI7348
aI7582
aI8256
aI8726
aI9678
aI9740
aI9748
asS'TTTA'
p318
(lp319
I484
aI495
aI579
aI765
aI903
aI973
aI1577
aI1637
aI2110
aI2314
aI2470
aI2766
aI3700
aI4334
aI4613
aI5581
aI5700
aI6484
aI6873
aI6969
aI7531
aI7554
aI8611
aI8861
aI8929
aI9850
asS'TTTC'
p320
(lp321
I156
aI213
aI1328
aI1836
aI1862
aI1949
aI2211
aI2534
aI2549
aI2994
aI3030
aI3066
aI3192
aI3212
aI3394
aI3518
aI4296
aI4872
aI4937
aI5028
aI5104
aI5183
aI5213
aI5831
aI6137
aI6436
aI6441
aI7281
aI7989
aI8188
aI8342
aI8919
aI8984
aI9531
aI9667
aI9713
aI9869
aI9935
asS'TTTG'
p322
(lp323
I192
aI359
aI435
aI987
aI1252
aI1906
aI2133
aI2343
aI2837
aI3815
aI3987
aI5318
aI5426
aI5526
aI5626
aI5655
aI6595
aI7124
aI7513
aI7947
aI8169
aI8732
aI8839
aI9233
aI9492
aI9813
aI9966
asS'CAAG'
p324
(lp325
I7
aI80
aI138
aI150
aI313
aI389
aI1223
aI1880
aI2204
aI2220
aI2253
aI2609
aI2794
aI3186
aI3301
aI3750
aI4239
aI4430
aI4501
aI4741
aI5312
aI5691
aI5735
aI5879
aI5920
aI6061
aI6227
aI6599
aI6734
aI7108
aI7191
aI7421
aI7561
aI7666
aI7673
aI7743
aI7919
aI7972
aI8322
aI8646
aI9158
aI9458
aI9648
asS'ACCA'
p326
(lp327
I5
aI78
aI112
aI136
aI281
aI582
aI742
aI801
aI1070
aI1172
aI1457
aI2005
aI2120
aI2514
aI2829
aI2869
aI2873
aI2917
aI3036
aI3790
aI3833
aI3839
aI4403
aI4548
aI4789
aI4900
aI4903
aI5659
aI5877
aI6081
aI6201
aI7067
aI8455
aI8653
aI9371
aI9559
aI9765
asS'GCAG'
p328
(lp329
I89
aI648
aI936
aI957
aI965
aI1273
aI1536
aI1752
aI1893
aI1909
aI2062
aI2651
aI2965
aI3281
aI3541
aI3548
aI3645
aI3719
aI3904
aI3972
aI4042
aI4279
aI4321
aI4352
aI4811
aI5099
aI5145
aI5292
aI5841
aI6236
aI6293
aI6406
aI6550
aI6742
aI6851
aI7015
aI7291
aI7327
aI7480
aI7838
aI8083
aI8222
aI8289
aI8994
aI9124
aI9296
aI9309
aI9336
aI9621
aI9945
asS'CAAC'
p330
(lp331
I13
aI1921
aI1937
aI2043
aI2074
aI2726
aI2871
aI3792
aI3831
aI4185
aI4266
aI4453
aI4471
aI4603
aI4756
aI5516
aI5602
aI5688
aI6215
aI6285
aI6984
aI7449
aI7609
aI8457
aI8531
aI8763
aI8857
aI8906
aI8939
aI9561
aI9898
asS'GCAC'
p332
(lp333
I221
aI299
aI328
aI349
aI712
aI1243
aI1786
aI1877
aI3015
aI3034
aI3165
aI3241
aI3681
aI3992
aI4306
aI4355
aI4537
aI4814
aI4909
aI5479
aI5612
aI6684
aI6745
aI6893
aI7336
aI7543
aI7841
aI8336
aI8578
aI8651
aI8771
aI9196
aI9254
aI9369
asS'TGAG'
p334
(lp335
I593
aI1352
aI1532
aI1543
aI1735
aI1783
aI2086
aI2345
aI2436
aI2495
aI2658
aI2783
aI3446
aI3659
aI4425
aI4457
aI4564
aI4654
aI4750
aI5272
aI5431
aI6205
aI6354
aI6369
aI6511
aI6787
aI6899
aI7032
aI7046
aI7169
aI7411
aI7905
aI7933
aI7943
aI8232
aI9223
aI9292
aI9428
aI9538
aI9618
aI9828
asS'TTTT'
p336
(lp337
I1251
aI1576
aI1835
aI1860
aI1861
aI1905
aI2132
aI2313
aI2342
aI2468
aI2469
aI2548
aI2835
aI2836
aI3190
aI3191
aI3393
aI3986
aI4333
aI4936
aI5317
aI5425
aI5654
aI7553
aI7986
aI7987
aI7988
aI8341
aI8928
aI9712
asS'TGAA'
p338
(lp339
I242
aI287
aI307
aI489
aI736
aI826
aI1141
aI1236
aI1343
aI1508
aI1552
aI1608
aI1849
aI2745
aI3113
aI3174
aI3490
aI3536
aI3746
aI3785
aI4696
aI5109
aI5348
aI5587
aI5709
aI6209
aI6219
aI6529
aI6636
aI6839
aI7064
aI7352
aI7800
aI8033
aI8176
aI8500
aI8626
aI8712
aI8722
asS'TGAC'
p340
(lp341
I97
aI854
aI868
aI1008
aI1068
aI1105
aI1725
aI2217
aI2303
aI2508
aI2867
aI3161
aI3310
aI3321
aI3588
aI3765
aI3928
aI4000
aI4631
aI4882
aI4959
aI4976
aI5474
aI5657
aI6165
aI6274
aI6576
aI6731
aI7105
aI7515
aI7523
aI7568
aI8041
aI8753
aI8790
aI8936
aI9039
aI9085
aI9219
aI9547
aI9633
aI9661
aI9763
asS'GCAT'
p342
(lp343
I438
aI1154
aI1888
aI1984
aI2612
aI2977
aI3474
aI3513
aI3585
aI3602
aI3900
aI4115
aI4343
aI4784
aI5337
aI5553
aI5768
aI5900
aI6188
aI6514
aI6624
aI6660
aI6836
aI6902
aI7127
aI7235
aI7550
aI7572
aI7893
aI8489
aI8513
aI9077
aI9120
aI9541
aI9892
aI9963
asS'CAAT'
p344
(lp345
I399
aI584
aI1407
aI1462
aI1924
aI2116
aI2171
aI2354
aI2989
aI3120
aI3571
aI3608
aI3762
aI4110
aI4299
aI4488
aI4593
aI5154
aI5420
aI5649
aI6168
aI6288
aI6373
aI7400
aI8194
aI8824
aI8947
aI9130
aI9362
aI9453
asS'CTGT'
p346
(lp347
I30
aI189
aI459
aI547
aI729
aI1028
aI1102
aI1283
aI1780
aI2265
aI2617
aI2780
aI2969
aI3152
aI3390
aI3431
aI3918
aI3947
aI3997
aI4218
aI4638
aI4735
aI4865
aI5013
aI5697
aI5824
aI6805
aI6975
aI7040
aI7132
aI7212
aI7274
aI7995
aI8202
aI8215
aI8951
aI8977
aI9186
aI9213
aI9716
aI9733
aI9928
aI9991
asS'GTCT'
p348
(lp349
I432
aI848
aI1166
aI1229
aI1422
aI1473
aI1539
aI1722
aI1771
aI1958
aI1973
aI2263
aI2336
aI2665
aI2730
aI2861
aI3006
aI3043
aI3223
aI3418
aI3532
aI3818
aI3920
aI4031
aI4047
aI4291
aI4365
aI4492
aI4659
aI4824
aI4920
aI4986
aI5530
aI5629
aI5641
aI5882
aI5952
aI6102
aI6395
aI6411
aI6703
aI6755
aI6822
aI7050
aI7134
aI7156
aI7214
aI7691
aI7697
aI7851
aI8000
aI8110
aI8873
aI9112
aI9597
aI9627
aI9687
aI9969
aI9993
asS'TAGT'
p350
(lp351
I471
aI497
aI610
aI685
aI717
aI1227
aI1588
aI1809
aI2563
aI3004
aI3041
aI3276
aI3777
aI4085
aI4133
aI4261
aI4373
aI4646
aI4704
aI4767
aI4832
aI5340
aI5412
aI5494
aI5639
aI5774
aI5994
aI6117
aI6688
aI6763
aI7096
aI7556
aI7645
aI7859
aI7998
aI8173
aI8326
aI8931
aI9080
aI9172
asS'TCAT'
p352
(lp353
I783
aI1031
aI1384
aI1951
aI2009
aI2033
aI2285
aI2815
aI2951
aI3056
aI3083
aI3272
aI4481
aI4530
aI5030
aI5106
aI5870
aI6335
aI6619
aI6905
aI7368
aI7700
aI8038
aI8329
aI8444
aI8485
aI8750
aI9069
aI9146
aI9476
aI9535
asS'AATT'
p354
(lp355
I167
aI304
aI629
aI823
aI1149
aI1996
aI2340
aI2833
aI2844
aI3098
aI4111
aI4300
aI4447
aI5155
aI5211
aI5848
aI6609
aI6791
aI6943
aI7802
aI8356
aI8559
aI8825
aI9580
aI9811
aI9858
asS'TATG'
p356
(lp357
I177
aI1559
aI2506
aI2690
aI2927
aI3308
aI3339
aI3444
aI3923
aI3933
aI3980
aI4303
aI4522
aI4748
aI5172
aI5270
aI5305
aI5564
aI5897
aI6492
aI6878
aI7815
aI8064
aI8400
aI8934
aI9083
aI9109
aI9353
aI9442
asS'CTCG'
p358
(lp359
I566
aI703
aI771
aI809
aI950
aI1132
aI1840
aI2238
aI2501
aI3220
aI3420
aI3869
aI3875
aI3885
aI4092
aI4206
aI4621
aI4860
aI5149
aI5949
aI5954
aI6104
aI6175
aI6534
aI6657
aI7153
aI7184
aI7546
aI7620
aI7825
aI8004
aI8076
aI8345
aI8581
aI8689
aI8697
aI8832
aI9044
aI9470
asS'TATA'
p360
(lp361
I133
aI225
aI227
aI251
aI419
aI618
aI1049
aI1051
aI1498
aI1565
aI1571
aI1586
aI1818
aI2144
aI2231
aI2885
aI2945
aI3978
aI4251
aI4313
aI4417
aI4596
aI4641
aI4668
aI4889
aI5263
aI5385
aI5633
aI5702
aI5845
aI6008
aI6243
aI6563
aI6991
aI7295
aI8474
aI8476
aI8516
aI8550
aI8998
aI9170
aI9822
aI9949
asS'CTAT'
p362
(lp363
I176
aI224
aI371
aI450
aI505
aI1817
aI1823
aI2107
aI2884
aI2926
aI3080
aI3225
aI3307
aI3443
aI3508
aI3922
aI4293
aI4367
aI4826
aI4888
aI5171
aI5262
aI5269
aI6113
aI6423
aI6757
aI6915
aI7002
aI7200
aI7814
aI7853
aI8156
aI8301
aI8399
aI8594
aI8604
aI9143
aI9352
aI9441
aI9656
aI9821
asS'TATC'
p364
(lp365
I451
aI720
aI754
aI1671
aI2146
aI2541
aI2947
aI3081
aI3087
aI3226
aI3438
aI3509
aI3611
aI3618
aI4165
aI4368
aI4450
aI4542
aI4570
aI4598
aI4793
aI4827
aI5020
aI5777
aI5827
aI6333
aI6427
aI6486
aI6758
aI6916
aI6993
aI7003
aI7142
aI7201
aI7244
aI7277
aI7854
aI8057
aI8157
aI8302
aI8595
aI8605
aI8674
aI8877
aI8980
aI9144
aI9273
aI9657
aI9697
aI9775
aI9782
aI9931
asS'AATC'
p366
(lp367
I49
aI309
aI400
aI538
aI585
aI1408
aI1762
aI1776
aI1851
aI1925
aI2275
aI3062
aI3077
aI3176
aI3734
aI4231
aI4800
aI5112
aI5421
aI5715
aI6000
aI6289
aI6303
aI6721
aI6845
aI6928
aI7150
aI7446
aI7534
aI7576
aI7829
aI8036
aI8948
aI9095
aI9501
aI9730
asS'AATA'
p368
(lp369
I66
aI644
aI738
aI894
aI1603
aI2002
aI2102
aI2117
aI2172
aI2719
aI2747
aI2990
aI3107
aI3337
aI3360
aI3407
aI3572
aI3609
aI3787
aI3976
aI4024
aI4259
aI4594
aI6169
aI6241
aI6374
aI6388
aI6503
aI6876
aI7094
aI7303
aI7456
aI7637
aI7643
aI8195
aI8548
aI9131
aI9363
asS'AATG'
p370
(lp371
I55
aI487
aI511
aI1006
aI1162
aI1266
aI1463
aI1580
aI1692
aI2355
aI2370
aI2393
aI2908
aI3121
aI3208
aI3410
aI3538
aI3763
aI4067
aI4288
aI4464
aI4489
aI4946
aI5238
aI5279
aI5549
aI5650
aI6352
aI7306
aI7401
aI7807
aI7976
aI8620
aI8724
aI8864
aI9290
aI9454
aI9676
asS'TCAG'
p372
(lp373
I51
aI540
aI625
aI722
aI996
aI1417
aI1748
aI2213
aI2385
aI3089
aI3854
aI4227
aI4360
aI4376
aI4386
aI4443
aI4514
aI4544
aI4819
aI4835
aI4845
aI5745
aI5756
aI5925
aI6025
aI6120
aI6750
aI6766
aI6776
aI6825
aI6847
aI6930
aI6995
aI7694
aI7846
aI7862
aI7872
aI8150
aI8159
aI8607
aI9029
aI9152
aI9777
aI9972
asS'CGTG'
p374
(lp375
I240
aI263
aI464
aI749
aI914
aI1017
aI1234
aI1412
aI1981
aI2462
aI2648
aI3783
aI3859
aI4208
aI4708
aI4880
aI5003
aI5288
aI5472
aI5511
aI6430
aI6446
aI6509
aI7030
aI7580
aI7625
aI8031
aI8230
aI8275
aI8720
aI9117
aI9826
aI9835
aI9844
asS'CGTC'
p376
(lp377
I268
aI571
aI623
aI773
aI1336
aI2187
aI2240
aI2645
aI2729
aI3222
aI3417
aI4358
aI4817
aI4919
aI5050
aI5151
aI5501
aI5780
aI5951
aI5982
aI6048
aI6748
aI6810
aI6910
aI6935
aI7155
aI7597
aI7600
aI7622
aI7844
aI8028
aI8109
aI8148
aI8317
aI8462
aI8583
aI9359
aI9392
aI9403
aI9474
asS'CGTA'
p378
(lp379
I605
aI683
aI1035
aI1047
aI1454
aI1626
aI1681
aI1803
aI2192
aI2229
aI2757
aI2807
aI3002
aI3203
aI3328
aI3365
aI3422
aI4015
aI4064
aI4371
aI4574
aI4765
aI4830
aI5383
aI5637
aI5783
aI5988
aI6177
aI6644
aI6761
aI7249
aI7443
aI7537
aI7857
aI8129
aI8305
aI8520
aI8642
aI8850
aI9168
aI9250
aI9271
aI9986
asS'GTTA'
p380
(lp381
I277
aI344
aI543
aI752
aI983
aI1843
aI2431
aI2448
aI2456
aI2504
aI3138
aI3461
aI3775
aI3879
aI3888
aI4054
aI4249
aI4396
aI4520
aI4666
aI4915
aI5308
aI5333
aI5760
aI6156
aI6331
aI6628
aI7242
aI7381
aI7629
aI8204
aI8271
aI8556
aI9161
aI9495
aI9979
asS'GTTC'
p382
(lp383
I125
aI368
aI473
aI1397
aI1590
aI1614
aI1678
aI1757
aI2180
aI2267
aI2360
aI2383
aI2565
aI2569
aI2642
aI2786
aI2930
aI3297
aI3355
aI3483
aI4038
aI4143
aI4769
aI5754
aI5852
aI5888
aI5923
aI6312
aI6402
aI6641
aI6680
aI6708
aI6953
aI7226
aI7393
aI7614
aI7647
aI7713
aI7753
aI8528
aI8819
aI8829
aI8845
aI9800
aI9818
asS'GTCG'
p384
(lp385
I24
aI32
aI269
aI572
aI817
aI927
aI1337
aI2093
aI2625
aI2646
aI2971
aI3278
aI3379
aI3500
aI3696
aI3802
aI3845
aI3857
aI3949
aI4318
aI4706
aI5129
aI5164
aI5342
aI5781
aI5838
aI6183
aI6323
aI6465
aI6690
aI6933
aI7173
aI7232
aI7288
aI7461
aI7598
aI7623
aI7951
aI8029
aI8318
aI8438
aI8991
aI9393
aI9510
aI9718
aI9942
asS'GTCA'
p386
(lp387
I200
aI521
aI624
aI774
aI782
aI995
aI1030
aI1383
aI1747
aI2169
aI2241
aI3638
aI3707
aI3779
aI4284
aI4359
aI4375
aI4442
aI4480
aI4513
aI4818
aI4834
aI5051
aI5152
aI5363
aI5502
aI6119
aI6749
aI6765
aI6811
aI6911
aI7367
aI7845
aI7861
aI8149
aI8328
aI8463
aI8584
aI9068
aI9360
aI9475
aI9735
asS'GTTG'
p388
(lp389
I562
aI990
aI1184
aI1506
aI2679
aI3319
aI3497
aI4070
aI4189
aI4393
aI4517
aI4852
aI5179
aI6328
aI6456
aI6462
aI6479
aI6783
aI7566
aI7758
aI7798
aI7810
aI7879
aI8012
aI8375
aI8415
aI8710
aI8767
aI9074
aI9190
aI9616
aI9758
asS'GTCC'
p390
(lp391
I10
aI1077
aI1377
aI1446
aI1489
aI1633
aI1811
aI2128
aI2188
aI2585
aI2797
aI3154
aI4073
aI4087
aI4409
aI4434
aI4673
aI5461
aI5620
aI5983
aI6049
aI6807
aI6855
aI6936
aI7098
aI7601
aI7740
aI7746
aI8251
aI8296
aI9404
asS'AACC'
p392
(lp393
I73
aI273
aI280
aI554
aI741
aI800
aI1171
aI1554
aI1873
aI2075
aI2712
aI2828
aI2872
aI3267
aI3741
aI3793
aI3832
aI3838
aI3866
aI4582
aI5067
aI5574
aI5739
aI5876
aI6080
aI6259
aI7027
aI7066
aI7450
aI8071
aI8503
aI8564
aI8588
aI8786
asS'ACCG'
p394
(lp395
I69
aI274
aI529
aI555
aI621
aI747
aI777
aI856
aI890
aI899
aI1727
aI1874
aI1885
aI2159
aI2489
aI2621
aI2697
aI2740
aI2940
aI3071
aI3363
aI3651
aI4002
aI4326
aI4884
aI5676
aI5722
aI6233
aI6818
aI7028
aI7079
aI7488
aI8370
aI8589
aI8792
aI9401
aI9755
aI9984
asS'CTTA'
p396
(lp397
I2
aI696
aI1475
aI1496
aI1557
aI1563
aI1773
aI1870
aI2896
aI3250
aI3470
aI3553
aI3616
aI3768
aI3892
aI4146
aI4150
aI4540
aI4772
aI4875
aI4953
aI5038
aI5058
aI5208
aI5352
aI5492
aI5562
aI5571
aI5577
aI5631
aI5643
aI5719
aI5895
aI5938
aI5944
aI6962
aI8062
aI8141
aI8208
aI8672
aI8783
aI8875
aI9287
aI9318
aI9332
aI9567
aI9611
aI9863
aI9882
aI9995
asS'CTTC'
p398
(lp399
I159
aI665
aI1424
aI1547
aI1975
aI1978
aI2923
aI3054
aI3132
aI3236
aI3270
aI3398
aI3686
aI4225
aI4234
aI4382
aI4437
aI4494
aI4841
aI5868
aI5891
aI6306
aI6617
aI6724
aI6772
aI7158
aI7195
aI7722
aI7868
aI7963
aI8112
aI8313
aI8423
aI8427
aI8506
aI8568
aI8903
aI9088
aI9150
aI9278
aI9605
aI9839
asS'GGGG'
p400
(lp401
I180
aI1443
aI1717
aI1744
aI2054
aI2247
aI2474
aI2475
aI2476
aI2477
aI2478
aI2479
aI2901
aI2911
aI3094
aI3369
aI3370
aI3503
aI3725
aI3726
aI3727
aI3728
aI3729
aI3730
aI3862
aI4080
aI4081
aI4106
aI6524
aI6525
aI6557
aI6558
aI6698
aI6699
aI6700
aI7414
aI7820
aI8702
aI8703
aI8704
aI8735
aI8736
aI9051
aI9505
aI9576
aI9624
aI9771
aI9795
aI9796
aI9797
aI9876
aI9877
aI9878
aI9975
aI9976
asS'GGGC'
p402
(lp403
I794
aI1127
aI1450
aI2049
aI2055
aI2207
aI2223
aI2364
aI2480
aI2852
aI2892
aI3148
aI3371
aI3504
aI4019
aI4107
aI4192
aI4272
aI6028
aI6340
aI6383
aI6862
aI7181
aI7309
aI7415
aI7766
aI8015
aI8048
aI8081
aI8094
aI8759
aI8795
aI9052
aI9329
aI9879
asS'GTTT'
p404
(lp405
I155
aI191
aI358
aI902
aI972
aI1834
aI1948
aI2467
aI3029
aI3189
aI3211
aI3392
aI3699
aI3814
aI4612
aI4935
aI5182
aI5625
aI5653
aI5699
aI6136
aI6435
aI6440
aI6968
aI7123
aI7512
aI7946
aI7985
aI8168
aI8187
aI8340
aI8610
asS'GGGA'
p406
(lp407
I675
aI842
aI1320
aI1641
aI1718
aI1730
aI2319
aI2637
aI2902
aI2912
aI3095
aI3648
aI3731
aI3863
aI4176
aI4686
aI5247
aI5858
aI6151
aI6230
aI6347
aI6559
aI6653
aI7483
aI7491
aI7680
aI7821
aI8022
aI8362
aI8418
aI8705
aI9004
aI9552
aI9577
aI9590
aI9703
asS'CTTT'
p408
(lp409
I212
aI434
aI483
aI494
aI1327
aI1575
aI1636
aI1859
aI1904
aI2131
aI2210
aI2765
aI3065
aI3517
aI4332
aI4871
aI5027
aI5316
aI5424
aI5830
aI6594
aI7280
aI7530
aI8731
aI8838
aI8860
aI8918
aI8927
aI8983
aI9530
aI9666
aI9849
aI9868
aI9934
asS'ACCT'
p410
(lp411
I0
aI74
aI185
aI284
aI600
aI727
aI807
aI1281
aI1555
aI1962
aI2105
aI2322
aI2655
aI2713
aI3103
aI3245
aI3268
aI3466
aI3742
aI3867
aI4057
aI4583
aI4726
aI4733
aI4869
aI5068
aI5243
aI5490
aI5575
aI5740
aI5936
aI7525
aI7720
aI8421
aI8504
aI8787
aI8836
aI8913
aI9198
aI9202
aI9211
aI9414
aI9528
aI9609
asS'AACT'
p412
(lp413
I640
aI694
aI1026
aI1138
aI1902
aI2420
aI2595
aI2821
aI2921
aI3010
aI3110
aI3218
aI3883
aI3966
aI4122
aI4422
aI4454
aI4472
aI4616
aI4892
aI5093
aI5350
aI5453
aI5486
aI5711
aI5729
aI5942
aI6111
aI6216
aI6569
aI6573
aI6713
aI6960
aI6985
aI7321
aI7474
aI7520
aI7961
aI8574
aI8858
aI9899
asS'GAGT'
p414
(lp415
I123
aI153
aI658
aI1065
aI1349
aI1471
aI1631
aI1703
aI1720
aI2066
aI2167
aI2271
aI2492
aI2700
aI2784
aI2936
aI3261
aI4282
aI4460
aI4657
aI5123
aI5141
aI5177
aI5298
aI5665
aI5798
aI6206
aI6460
aI6832
aI7944
aI8054
aI8373
aI8471
aI8817
aI9421
aI9685
aI9705
aI9829
asS'GGTA'
p416
(lp417
I35
aI131
aI182
aI249
aI1061
aI1146
aI1713
aI1899
aI2096
aI3346
aI3598
aI3941
aI4083
aI4155
aI4163
aI4568
aI4746
aI5772
aI5933
aI6006
aI6490
aI6605
aI7140
aI7437
aI7504
aI7717
aI8630
aI9237
aI9386
aI9408
aI9461
aI9651
aI9724
aI9773
aI9780
aI9903
asS'GGTG'
p418
(lp419
I95
aI467
aI734
aI839
aI883
aI1662
aI1695
aI1847
aI2136
aI2199
aI2249
aI2743
aI3026
aI3285
aI3693
aI3722
aI4413
aI4508
aI4932
aI5358
aI5379
aI5521
aI6057
aI6272
aI6527
aI6695
aI7062
aI7167
aI7356
aI7684
aI7750
aI7795
aI7954
aI8100
aI8668
aI8738
aI9178
aI9507
aI9721
aI9761
asS'AGCA'
p420
(lp421
I220
aI348
aI647
aI1153
aI1242
aI1460
aI1785
aI2607
aI2611
aI2964
aI3473
aI3601
aI3606
aI3829
aI4278
aI4342
aI4354
aI4469
aI4536
aI4783
aI4813
aI4908
aI5336
aI5647
aI5767
aI6076
aI6187
aI6371
aI6513
aI6549
aI6744
aI6901
aI7542
aI7664
aI7840
aI7970
aI8221
aI9134
aI9253
aI9335
aI9368
aI9451
aI9540
aI9620
asS'GGCG'
p422
(lp423
I910
aI1202
aI2027
aI2289
aI2350
aI2365
aI2755
aI2840
aI3128
aI3201
aI4051
aI4504
aI4578
aI5218
aI5328
aI6064
aI6474
aI7441
aI7501
aI7595
aI7708
aI7767
aI7890
aI7922
aI8095
aI8225
aI8228
aI8665
aI8776
aI9008
aI9312
aI9396
aI9483
asS'AGCC'
p424
(lp425
I140
aI595
aI1040
aI1190
aI1404
aI1437
aI1478
aI1621
aI1709
aI2195
aI2255
aI2451
aI2459
aI2660
aI2959
aI3493
aI3661
aI4241
aI4752
aI5813
aI6295
aI6363
aI6377
aI6801
aI6884
aI7263
aI7373
aI7789
aI8145
aI8240
aI8291
aI8715
aI8966
aI9917
asS'TTGT'
p426
(lp427
I22
aI193
aI851
aI873
aI988
aI1185
aI1740
aI2423
aI3498
aI3800
aI3816
aI4071
aI4141
aI4394
aI4518
aI4853
aI5180
aI5443
aI5618
aI5627
aI5683
aI5706
aI5850
aI6329
aI6463
aI6706
aI6784
aI7880
aI8170
aI8366
aI8436
aI8599
aI8683
aI8827
aI8840
aI9106
aI9493
aI9630
aI9814
aI9967
asS'AGCG'
p428
(lp429
I207
aI315
aI959
aI1113
aI1831
aI1895
aI1917
aI2088
aI2347
aI2752
aI3351
aI3752
aI3906
aI4349
aI4743
aI4763
aI4808
aI4878
aI5001
aI5437
aI5595
aI5606
aI5662
aI5693
aI5980
aI6089
aI6647
aI6739
aI6827
aI6997
aI7012
aI7059
aI7835
aI8234
aI8387
aI8468
aI8640
aI8803
aI9012
aI9338
aI9374
aI9465
aI9833
aI9854
aI9889
aI9960
asS'GAGG'
p430
(lp431
I41
aI129
aI247
aI558
aI634
aI924
aI1270
aI1353
aI1533
aI2025
aI2437
aI2445
aI2496
aI2582
aI2635
aI2890
aI3020
aI3376
aI3630
aI4104
aI4565
aI5161
aI5234
aI5273
aI5795
aI5856
aI6067
aI7035
aI7047
aI7170
aI7406
aI7412
aI7682
aI7734
aI7906
aI8079
aI8098
aI9006
aI9265
aI9293
aI9574
aI9588
aI9692
asS'GAGA'
p432
(lp433
I63
aI121
aI691
aI812
aI1259
aI1347
aI1656
aI1912
aI1914
aI2021
aI2023
aI2674
aI2706
aI2914
aI2934
aI3074
aI3447
aI3578
aI3580
aI3738
aI4102
aI4426
aI4458
aI4555
aI4655
aI4700
aI4972
aI5540
aI5928
aI6146
aI6355
aI6788
aI6796
aI6798
aI7033
aI7076
aI7934
aI8024
aI8180
aI8182
aI8237
aI8348
aI8888
aI8899
aI9224
aI9572
asS'GGTT'
p434
(lp435
I561
aI1756
aI2179
aI2359
aI2447
aI3137
aI3354
aI3482
aI3878
aI4037
aI4392
aI4851
aI5332
aI5759
aI6327
aI6401
aI6434
aI6478
aI6679
aI6782
aI7122
aI7380
aI7565
aI7628
aI7757
aI7878
aI8011
aI8167
aI8270
aI8844
aI9073
aI9799
aI9978
asS'TTGA'
p436
(lp437
I306
aI374
aI825
aI1253
aI1360
aI1507
aI1531
aI1542
aI1607
aI1667
aI1734
aI2085
aI2344
aI3320
aI3535
aI3745
aI4653
aI5656
aI6164
aI6480
aI6635
aI6898
aI7347
aI7351
aI7514
aI7567
aI7799
aI8255
aI8625
aI8711
aI9617
asS'TTGC'
p438
(lp439
I87
aI360
aI436
aI441
aI563
aI679
aI786
aI1797
aI1907
aI1929
aI1987
aI2601
aI2680
aI2723
aI3013
aI3643
aI3896
aI3988
aI4113
aI5319
aI5427
aI6497
aI6596
aI6611
aI6622
aI7125
aI7759
aI7811
aI8334
aI8395
aI9075
aI9191
aI9644
asS'CTGG'
p440
(lp441
I404
aI792
aI944
aI1318
aI1370
aI1400
aI1486
aI1955
aI1964
aI2038
aI2052
aI2176
aI2245
aI2575
aI2591
aI3182
aI4049
aI4896
aI4969
aI5077
aI5216
aI5245
aI5326
aI5356
aI5482
aI6099
aI6124
aI6860
aI7435
aI7764
aI8020
aI9306
aI9550
aI9769
aI9874
aI9901
asS'AGCT'
p442
(lp443
I492
aI832
aI1122
aI1545
aI1737
aI1821
aI1868
aI2282
aI2414
aI2967
aI3305
aI3429
aI3452
aI3851
aI4204
aI4216
aI4636
aI5147
aI5314
aI5401
aI5433
aI5947
aI5959
aI5991
aI6018
aI6122
aI6532
aI6632
aI7008
aI7193
aI7668
aI8152
aI8282
aI8482
aI8656
aI8695
aI9350
aI9430
aI9654
aI9805
aI9866
aI9989
asS'TTGG'
p444
(lp445
I101
aI118
aI409
aI991
aI1058
aI1083
aI2134
aI2442
aI2838
aI3344
aI3596
aI3704
aI3958
aI3969
aI4034
aI4190
aI5009
aI5085
aI5096
aI5527
aI6269
aI6338
aI6398
aI6457
aI6673
aI6793
aI6868
aI6945
aI7313
aI7324
aI7466
aI7477
aI7706
aI7948
aI8013
aI8165
aI8376
aI8416
aI8733
aI8768
aI9234
aI9481
aI9759
asS'CCCA'
p446
(lp447
I258
aI759
aI1247
aI1439
aI1515
aI2081
aI2151
aI2279
aI2306
aI2555
aI2792
aI2987
aI3157
aI3383
aI4076
aI4183
aI4676
aI4692
aI4730
aI4754
aI5073
aI5133
aI5187
aI5370
aI5391
aI5463
aI5733
aI6032
aI6283
aI7376
aI7603
aI7980
aI8742
aI8800
aI9246
aI9378
aI9525
asS'ATGC'
p448
(lp449
I56
aI512
aI934
aI1560
aI2035
aI2394
aI2881
aI3340
aI3411
aI3539
aI3567
aI3677
aI3902
aI3924
aI4304
aI4523
aI5032
aI5173
aI5222
aI5373
aI5394
aI5671
aI5898
aI5975
aI6493
aI7334
aI7402
aI7816
aI7977
aI8258
aI8446
aI8487
aI8621
aI9122
aI9455
aI9894
asS'ATGA'
p450
(lp451
I18
aI232
aI488
aI1007
aI1464
aI1581
aI2011
aI2302
aI2371
aI2507
aI3160
aI3173
aI3309
aI3445
aI3489
aI3587
aI3764
aI4695
aI4749
aI4958
aI4975
aI5108
aI5271
aI5586
aI6204
aI6353
aI6730
aI6838
aI6879
aI7045
aI7942
aI8040
aI8499
aI8725
aI8752
aI8935
aI9084
aI9291
aI9427
aI9537
aI9677
asS'ATGG'
p452
(lp453
I178
aI908
aI1163
aI1256
aI1267
aI1374
aI1693
aI2287
aI2356
aI2691
aI2909
aI3122
aI3842
aI3953
aI4117
aI4270
aI4390
aI4849
aI4947
aI5280
aI5550
aI5565
aI5770
aI6603
aI6780
aI7307
aI7876
aI8865
aI9049
aI9071
aI9354
aI9443
aI9487
asS'TGCT'
p454
(lp455
I57
aI564
aI1178
aI1414
aI1561
aI1664
aI1798
aI2036
aI2589
aI2882
aI3248
aI3341
aI3412
aI3925
aI4856
aI4923
aI5033
aI5036
aI5056
aI5082
aI5395
aI5428
aI5446
aI6130
aI6414
aI6417
aI6494
aI6612
aI7433
aI7528
aI7618
aI7760
aI7772
aI7812
aI8602
aI8622
aI8670
aI8747
aI9192
aI9216
aI9439
aI9837
asS'ACTA'
p456
(lp457
I175
aI203
aI223
aI330
aI501
aI504
aI608
aI641
aI1003
aI1310
aI1816
aI2709
aI2822
aI2825
aI3312
aI3323
aI3442
aI3456
aI4978
aI5407
aI5410
aI5450
aI5454
aI5487
aI5712
aI6073
aI6112
aI6159
aI6570
aI6686
aI6714
aI6914
aI7022
aI7199
aI7338
aI8300
asS'GCGC'
p458
(lp459
I27
aI208
aI316
aI396
aI911
aI960
aI1333
aI1918
aI1931
aI2351
aI3129
aI3679
aI3898
aI3990
aI4126
aI4350
aI4809
aI5321
aI5323
aI5375
aI5596
aI5607
aI5694
aI6740
aI6828
aI6888
aI7013
aI7176
aI7709
aI7768
aI7836
aI7891
aI7923
aI7925
aI9313
aI9339
aI9375
aI9466
aI9890
aI9961
asS'GCAA'
p460
(lp461
I398
aI637
aI1461
aI1920
aI1936
aI1989
aI2115
aI2252
aI2353
aI2608
aI2725
aI3119
aI3185
aI3607
aI3830
aI4021
aI4109
aI4274
aI4470
aI4500
aI4592
aI5515
aI5601
aI5648
aI5687
aI6060
aI6077
aI6372
aI6385
aI6598
aI6948
aI7190
aI7560
aI7665
aI7672
aI7909
aI7971
aI8193
aI8321
aI8405
aI8635
aI8823
aI8856
aI9135
aI9452
aI9457
asS'GCGA'
p462
(lp463
I427
aI575
aI653
aI922
aI1307
aI1618
aI2530
aI2704
aI2841
aI3753
aI3907
aI3912
aI4579
aI5175
aI5219
aI5224
aI5663
aI5673
aI5793
aI6065
aI6090
aI6449
aI6648
aI6830
aI7054
aI7404
aI7660
aI7927
aI8096
aI8235
aI8278
aI8448
aI8469
aI8496
aI8777
aI8804
aI9009
aI9013
aI9341
aI9484
aI9517
aI9673
aI9855
asS'GCGG'
p464
(lp465
I446
aI514
aI886
aI1092
aI1114
aI1200
aI1203
aI1768
aI1896
aI1933
aI2028
aI2089
aI2290
aI2348
aI2366
aI2396
aI2603
aI2753
aI3352
aI3529
aI3691
aI3938
aI4128
aI4174
aI4505
aI4744
aI5120
aI5329
aI5377
aI5438
aI6004
aI6475
aI6693
aI6998
aI7060
aI7502
aI7593
aI7818
aI8046
aI8226
aI8388
aI8535
aI8666
aI8700
aI8757
aI8896
aI9101
aI9176
aI9327
aI9397
asS'CCCC'
p466
(lp467
I257
aI1011
aI1012
aI1013
aI1014
aI1079
aI1246
aI1483
aI1514
aI1595
aI2077
aI2078
aI2079
aI2080
aI2149
aI2150
aI2278
aI2683
aI2791
aI2799
aI2986
aI3156
aI3179
aI3795
aI3796
aI4075
aI4170
aI4675
aI5186
aI5369
aI5389
aI5390
aI5536
aI6012
aI6031
aI6254
aI6857
aI7375
aI7588
aI7589
aI7885
aI7886
aI8073
aI8199
aI8212
aI8717
aI8798
aI8799
aI9245
aI9281
aI9282
aI9584
asS'TGCC'
p468
(lp469
I265
aI361
aI442
aI613
aI680
aI787
aI2138
aI2201
aI2403
aI2681
aI2772
aI3568
aI4181
aI4524
aI4649
aI4738
aI5071
aI5198
aI5976
aI6281
aI6420
aI6498
aI6978
aI7358
aI7978
aI8259
aI8396
aI8740
aI9645
aI9846
aI9895
asS'CACG'
p470
(lp471
I145
aI300
aI454
aI803
aI1097
aI2046
aI2122
aI2155
aI2670
aI2805
aI2875
aI3000
aI3016
aI3166
aI3711
aI3781
aI4356
aI4405
aI4663
aI4815
aI4929
aI5286
aI5504
aI5613
aI6309
aI6444
aI6746
aI7730
aI7842
aI8135
aI8337
aI8460
aI8493
aI8848
aI9019
aI9248
aI9324
aI9390
aI9670
asS'TGCA'
p472
(lp473
I88
aI298
aI327
aI437
aI711
aI935
aI956
aI1908
aI1983
aI1988
aI2251
aI2650
aI2724
aI2976
aI3014
aI3540
aI3644
aI3903
aI4114
aI4305
aI4499
aI4591
aI5144
aI5478
aI5686
aI5899
aI6059
aI6597
aI6623
aI6835
aI6892
aI7126
aI7335
aI7559
aI7671
aI8192
aI8335
aI8404
aI8488
aI8512
aI8577
aI8650
aI9076
aI9119
aI9123
aI9195
aI9456
asS'CACA'
p474
(lp475
I114
aI350
aI534
aI713
aI744
aI1108
aI1110
aI1314
aI1878
aI2153
aI2557
aI2559
aI2737
aI2998
aI3242
aI3560
aI3682
aI3709
aI3760
aI3822
aI4097
aI4237
aI4307
aI4486
aI4910
aI4927
aI6518
aI6894
aI7508
aI8133
aI8465
aI8772
aI9255
aI9257
asS'TGCG'
p476
(lp477
I395
aI426
aI462
aI513
aI652
aI885
aI969
aI1199
aI1232
aI1332
aI1767
aI1930
aI2395
aI2464
aI2602
aI2703
aI3678
aI3897
aI3937
aI3989
aI4125
aI5174
aI5223
aI5320
aI5374
aI5381
aI5672
aI6448
aI7053
aI7403
aI7817
aI8045
aI8127
aI8277
aI8447
aI9175
asS'CACC'
p478
(lp479
I283
aI528
aI746
aI776
aI898
aI1244
aI1481
aI1517
aI1787
aI2378
aI2488
aI2513
aI2553
aI2739
aI3035
aI3102
aI3244
aI3993
aI4402
aI4725
aI4732
aI4902
aI5023
aI5534
aI6817
aI8454
aI8652
aI9197
aI9210
aI9370
aI9527
aI9558
aI9608
aI9983
asS'TACA'
p480
(lp481
I106
aI170
aI229
aI896
aI905
aI1021
aI1053
aI1312
aI1805
aI2259
aI2749
aI2759
aI3140
aI3478
aI4253
aI4264
aI4336
aI4586
aI4955
aI5040
aI5229
aI5301
aI5310
aI5418
aI5583
aI5801
aI5972
aI6318
aI6470
aI6964
aI7251
aI7383
aI7506
aI7631
aI8131
aI8245
aI8522
aI8644
aI8659
aI8881
aI8954
aI9156
aI9208
aI9388
aI9448
aI9600
aI9905
aI9981
asS'TACC'
p482
(lp483
I4
aI68
aI77
aI135
aI184
aI581
aI599
aI620
aI767
aI1280
aI1456
aI1884
aI1961
aI2004
aI2104
aI2119
aI2620
aI2696
aI2939
aI3070
aI3362
aI3789
aI3943
aI4056
aI4136
aI4325
aI4559
aI4788
aI4868
aI5242
aI5265
aI5387
aI5489
aI5721
aI5935
aI6010
aI6200
aI7340
aI7487
aI7719
aI7883
aI8197
aI8210
aI8369
aI8912
aI9201
aI9754
asS'TACG'
p484
(lp485
I196
aI603
aI698
aI1304
aI1468
aI1628
aI2015
aI2059
aI2227
aI2233
aI2316
aI2408
aI2527
aI2898
aI3330
aI3458
aI3574
aI4917
aI5060
aI5497
aI5509
aI5635
aI5820
aI6179
aI6908
aI6920
aI6971
aI7119
aI7270
aI8091
aI8273
aI8359
aI8518
aI8810
aI8852
aI8893
aI8973
aI9824
aI9924
asS'CATA'
p486
(lp487
I616
aI669
aI715
aI761
aI1155
aI1278
aI1807
aI2406
aI2561
aI2613
aI2816
aI2978
aI3603
aI3824
aI3835
aI3931
aI4344
aI4791
aI5303
aI5338
aI5554
aI6316
aI6906
aI7369
aI7573
aI8243
aI8330
aI8514
aI9078
asS'TAGA'
p488
(lp489
I550
aI1063
aI1157
aI1567
aI1599
aI1999
aI3205
aI3314
aI3463
aI3770
aI4398
aI4553
aI4797
aI4980
aI5404
aI5556
aI5668
aI5785
aI5997
aI6565
aI6716
aI7539
aI7785
aI8118
aI9239
aI9365
aI9424
aI9433
aI9690
aI9884
aI9957
asS'CATC'
p490
(lp491
I260
aI352
aI1032
aI1174
aI1213
aI1291
aI1889
aI1952
aI2007
aI3514
aI4531
aI4678
aI5189
aI5803
aI5863
aI5871
aI6023
aI6141
aI6189
aI6515
aI6540
aI6544
aI6588
aI6903
aI7128
aI7253
aI7361
aI8490
aI8524
aI8956
aI9147
aI9259
aI9477
aI9542
aI9602
aI9907
asS'CATG'
p492
(lp493
I231
aI907
aI1385
aI1675
aI1945
aI2010
aI2034
aI2286
aI2880
aI3159
aI3586
aI3676
aI3841
aI3901
aI4116
aI4269
aI4477
aI4694
aI4912
aI4957
aI5031
aI5107
aI5372
aI5393
aI5585
aI5751
aI5769
aI5974
aI6203
aI6320
aI6625
aI6661
aI6837
aI7115
aI7333
aI7941
aI7982
aI8039
aI8445
aI8486
aI8751
aI9070
aI9121
aI9380
aI9536
aI9893
asS'TCCT'
p494
(lp495
I402
aI708
aI865
aI1433
aI1549
aI1634
aI1764
aI1778
aI1812
aI1838
aI1857
aI2129
aI2586
aI2864
aI3396
aI4088
aI4435
aI4496
aI4619
aI4680
aI5169
aI5560
aI5717
aI5893
aI7130
aI8252
aI8425
aI8680
aI8916
aI8921
aI9205
aI9544
aI9751
aI9861
asS'CGCT'
p496
(lp497
I28
aI295
aI1368
aI1791
aI2410
aI2778
aI2973
aI3130
aI3234
aI3521
aI3614
aI3804
aI3871
aI4886
aI4962
aI5166
aI5202
aI5324
aI5506
aI5695
aI5822
aI5866
aI6266
aI6366
aI6467
aI6889
aI6922
aI6973
aI7272
aI7344
aI7463
aI7769
aI7902
aI8060
aI8124
aI8691
aI8975
aI9285
aI9314
aI9926
asS'CATT'
p498
(lp499
I116
aI320
aI439
aI784
aI871
aI1249
aI1358
aI1985
aI2083
aI2308
aI2516
aI2952
aI3057
aI3084
aI3273
aI3385
aI3475
aI4482
aI4550
aI4785
aI5046
aI5681
aI5901
aI6336
aI6359
aI6620
aI6866
aI6896
aI6939
aI7236
aI7551
aI7605
aI7701
aI7894
aI8393
aI9636
aI9964
asS'AAAA'
p500
(lp501
I1024
aI1209
aI1219
aI1690
aI1991
aI1992
aI1993
aI1994
aI2819
aI3290
aI3291
aI3634
aI3964
aI4008
aI4009
aI4010
aI4011
aI4339
aI4420
aI4713
aI4714
aI4715
aI4716
aI4717
aI4718
aI4993
aI4994
aI4995
aI5064
aI5065
aI5091
aI5277
aI5457
aI6084
aI6211
aI6221
aI6222
aI6223
aI6841
aI6842
aI6843
aI6926
aI6958
aI7025
aI7319
aI7472
aI7726
aI8383
aI8384
aI8546
aI8637
aI9164
aI9790
asS'CTGA'
p502
(lp503
I286
aI338
aI592
aI867
aI1140
aI1342
aI1551
aI1650
aI1724
aI1793
aI2435
aI2522
aI2544
aI2597
aI2657
aI2686
aI2866
aI3112
aI3523
aI3564
aI3658
aI3927
aI4424
aI4456
aI4563
aI4630
aI5347
aI5430
aI6218
aI6368
aI6575
aI6727
aI6987
aI7104
aI7410
aI7522
aI7904
aI7932
aI8789
aI9038
aI9218
aI9222
aI9546
aI9660
aI9739
aI9747
asS'CGCG'
p504
(lp505
I26
aI445
aI574
aI912
aI921
aI1091
aI1306
aI1334
aI1503
aI1617
aI1624
aI1932
aI2185
aI2529
aI3528
aI3690
aI3911
aI4127
aI4173
aI5119
aI5322
aI5376
aI5499
aI5792
aI5986
aI6003
aI6692
aI6829
aI6887
aI7175
aI7592
aI7659
aI7710
aI7924
aI7926
aI8495
aI8534
aI8699
aI8756
aI8895
aI9100
aI9326
aI9340
aI9472
aI9516
aI9672
aI9842
asS'TCCG'
p506
(lp507
I238
aI1045
aI1181
aI1215
aI1297
aI1366
aI1410
aI1447
aI1801
aI2295
aI2536
aI2776
aI3134
aI3214
aI3228
aI3415
aI3485
aI3688
aI4062
aI4410
aI4572
aI5114
aI5470
aI5984
aI6050
aI6133
aI6191
aI6264
aI6344
aI6808
aI7099
aI7228
aI7395
aI7578
aI7747
aI7897
aI8315
aI8429
aI9115
aI9346
aI9405
asS'CGCC'
p508
(lp509
I147
aI162
aI209
aI317
aI700
aI952
aI961
aI1299
aI1393
aI1593
aI2627
aI2877
aI3332
aI3381
aI3847
aI4004
aI4168
aI4244
aI4623
aI5116
aI5131
aI5597
aI5608
aI5678
aI6106
aI6579
aI6981
aI7177
aI7186
aI7586
aI7899
aI7938
aI8431
aI8440
aI8591
aI9243
aI9376
aI9467
aI9640
asS'TCCC'
p510
(lp511
I587
aI758
aI1078
aI1378
aI1426
aI1853
aI2148
aI2182
aI2189
aI2277
aI2790
aI2798
aI3155
aI3178
aI3194
aI4074
aI4674
aI4691
aI4729
aI5185
aI5368
aI5462
aI5732
aI5906
aI5913
aI6045
aI6856
aI7246
aI7602
aI7775
aI8285
aI8924
aI9097
aI9280
aI9583
aI9871
asS'CGCA'
p512
(lp513
I397
aI964
aI1876
aI1887
aI1892
aI1919
aI2061
aI2352
aI3033
aI3164
aI3280
aI3512
aI3584
aI3680
aI3899
aI3991
aI4041
aI4320
aI4351
aI4810
aI5600
aI5611
aI5840
aI6235
aI6292
aI6405
aI6659
aI6683
aI6741
aI7014
aI7189
aI7234
aI7290
aI7571
aI7837
aI7892
aI8288
aI8320
aI8822
aI8993
aI9891
aI9944
aI9962
asS'TCCA'
p514
(lp515
I11
aI217
aI311
aI354
aI526
aI667
aI1289
aI1490
aI1673
aI2551
aI2668
aI2996
aI3299
aI3558
aI3668
aI4475
aI4533
aI4802
aI4939
aI4965
aI5621
aI6021
aI6139
aI6248
aI6314
aI6542
aI6546
aI6586
aI6937
aI7005
aI7649
aI7741
aI8297
aI8570
aI9017
aI9261
aI9556
as.